ARM GAS  C:\Users\ANTONI~1\AppData\Local\Temp\ccz4EO4p.s 			page 1


   1              		.syntax unified
   2              		.cpu cortex-m0
   3              		.fpu softvfp
   4              		.eabi_attribute 20, 1
   5              		.eabi_attribute 21, 1
   6              		.eabi_attribute 23, 3
   7              		.eabi_attribute 24, 1
   8              		.eabi_attribute 25, 1
   9              		.eabi_attribute 26, 1
  10              		.eabi_attribute 30, 1
  11              		.eabi_attribute 34, 0
  12              		.eabi_attribute 18, 4
  13              		.thumb
  14              		.syntax unified
  15              		.file	"LiquidCrystal_I2C.c"
  16              		.text
  17              	.Ltext0:
  18              		.cfi_sections	.debug_frame
  19              		.section	.text.LiquidCrystal_I2C_init,"ax",%progbits
  20              		.align	2
  21              		.global	LiquidCrystal_I2C_init
  22              		.code	16
  23              		.thumb_func
  24              		.type	LiquidCrystal_I2C_init, %function
  25              	LiquidCrystal_I2C_init:
  26              	.LFB35:
  27              		.file 1 "LiquidCrystal_I2C.c"
   1:LiquidCrystal_I2C.c **** #include "LiquidCrystal_I2C.h"
   2:LiquidCrystal_I2C.c **** 
   3:LiquidCrystal_I2C.c **** uint8_t _addr;
   4:LiquidCrystal_I2C.c **** uint8_t _displayfunction;
   5:LiquidCrystal_I2C.c **** uint8_t _displaycontrol;
   6:LiquidCrystal_I2C.c **** uint8_t _displaymode;
   7:LiquidCrystal_I2C.c **** uint8_t _cols;
   8:LiquidCrystal_I2C.c **** uint8_t _rows;
   9:LiquidCrystal_I2C.c **** uint8_t _charsize;
  10:LiquidCrystal_I2C.c **** uint8_t _backlightval;
  11:LiquidCrystal_I2C.c **** 
  12:LiquidCrystal_I2C.c **** void LiquidCrystal_I2C_init(uint8_t lcd_addr, uint8_t lcd_cols, uint8_t lcd_rows, uint8_t charsize)
  13:LiquidCrystal_I2C.c **** {
  28              		.loc 1 13 0
  29              		.cfi_startproc
  30              		@ args = 0, pretend = 0, frame = 0
  31              		@ frame_needed = 0, uses_anonymous_args = 0
  32              	.LVL0:
  33 0000 10B5     		push	{r4, lr}
  34              		.cfi_def_cfa_offset 8
  35              		.cfi_offset 4, -8
  36              		.cfi_offset 14, -4
  14:LiquidCrystal_I2C.c **** 	_addr = lcd_addr;
  37              		.loc 1 14 0
  38 0002 064C     		ldr	r4, .L2
  39 0004 2070     		strb	r0, [r4]
  15:LiquidCrystal_I2C.c **** 	_cols = lcd_cols;
  40              		.loc 1 15 0
  41 0006 0648     		ldr	r0, .L2+4
  42              	.LVL1:
ARM GAS  C:\Users\ANTONI~1\AppData\Local\Temp\ccz4EO4p.s 			page 2


  43 0008 0170     		strb	r1, [r0]
  16:LiquidCrystal_I2C.c **** 	_rows = lcd_rows;
  44              		.loc 1 16 0
  45 000a 0649     		ldr	r1, .L2+8
  46              	.LVL2:
  47 000c 0A70     		strb	r2, [r1]
  17:LiquidCrystal_I2C.c **** 	_charsize = charsize;
  48              		.loc 1 17 0
  49 000e 064A     		ldr	r2, .L2+12
  50              	.LVL3:
  51 0010 1370     		strb	r3, [r2]
  18:LiquidCrystal_I2C.c **** 	_backlightval = LCD_BACKLIGHT;
  52              		.loc 1 18 0
  53 0012 0822     		movs	r2, #8
  54 0014 054B     		ldr	r3, .L2+16
  55              	.LVL4:
  56 0016 1A70     		strb	r2, [r3]
  19:LiquidCrystal_I2C.c ****     
  20:LiquidCrystal_I2C.c ****     return;
  21:LiquidCrystal_I2C.c **** }
  57              		.loc 1 21 0
  58              		@ sp needed
  59 0018 10BD     		pop	{r4, pc}
  60              	.L3:
  61 001a C046     		.align	2
  62              	.L2:
  63 001c 00000000 		.word	_addr
  64 0020 00000000 		.word	_cols
  65 0024 00000000 		.word	_rows
  66 0028 00000000 		.word	_charsize
  67 002c 00000000 		.word	_backlightval
  68              		.cfi_endproc
  69              	.LFE35:
  70              		.size	LiquidCrystal_I2C_init, .-LiquidCrystal_I2C_init
  71              		.section	.text.I2C_M_write_byte,"ax",%progbits
  72              		.align	2
  73              		.global	I2C_M_write_byte
  74              		.code	16
  75              		.thumb_func
  76              		.type	I2C_M_write_byte, %function
  77              	I2C_M_write_byte:
  78              	.LFB64:
  22:LiquidCrystal_I2C.c **** 
  23:LiquidCrystal_I2C.c **** void begin(void){
  24:LiquidCrystal_I2C.c ****   
  25:LiquidCrystal_I2C.c **** 	_displayfunction = LCD_4BITMODE | LCD_1LINE | LCD_5x8DOTS;
  26:LiquidCrystal_I2C.c **** 
  27:LiquidCrystal_I2C.c **** 	if (_rows > 1) {
  28:LiquidCrystal_I2C.c **** 		_displayfunction |= LCD_2LINE;
  29:LiquidCrystal_I2C.c **** 	}
  30:LiquidCrystal_I2C.c **** 
  31:LiquidCrystal_I2C.c **** 	// for some 1 line displays you can select a 10 pixel high font
  32:LiquidCrystal_I2C.c **** 	if ((_charsize != 0) && (_rows == 1)) {
  33:LiquidCrystal_I2C.c **** 		_displayfunction |= LCD_5x10DOTS;
  34:LiquidCrystal_I2C.c **** 	}
  35:LiquidCrystal_I2C.c **** 
  36:LiquidCrystal_I2C.c **** 	// SEE PAGE 45/46 FOR INITIALIZATION SPECIFICATION!
ARM GAS  C:\Users\ANTONI~1\AppData\Local\Temp\ccz4EO4p.s 			page 3


  37:LiquidCrystal_I2C.c **** 	// according to datasheet, we need at least 40ms after power rises above 2.7V
  38:LiquidCrystal_I2C.c **** 	// before sending commands. Arduino can turn on way befer 4.5V so we'll wait 50
  39:LiquidCrystal_I2C.c **** 	CyDelay(50); 
  40:LiquidCrystal_I2C.c **** 
  41:LiquidCrystal_I2C.c **** 	// Now we pull both RS and R/W low to begin commands
  42:LiquidCrystal_I2C.c **** 	expanderWrite(_backlightval);	// reset expanderand turn backlight off (Bit 8 =1)
  43:LiquidCrystal_I2C.c **** 	CyDelay(1000);
  44:LiquidCrystal_I2C.c **** 
  45:LiquidCrystal_I2C.c **** 	//put the LCD into 4 bit mode
  46:LiquidCrystal_I2C.c **** 	// this is according to the hitachi HD44780 datasheet
  47:LiquidCrystal_I2C.c **** 	// figure 24, pg 46
  48:LiquidCrystal_I2C.c **** 
  49:LiquidCrystal_I2C.c **** 	// we start in 8bit mode, try to set 4 bit mode
  50:LiquidCrystal_I2C.c **** 	write4bits(0x03 << 4);
  51:LiquidCrystal_I2C.c **** 	CyDelayUs(4500); // wait min 4.1ms
  52:LiquidCrystal_I2C.c **** 
  53:LiquidCrystal_I2C.c **** 	// second try
  54:LiquidCrystal_I2C.c **** 	write4bits(0x03 << 4);
  55:LiquidCrystal_I2C.c **** 	CyDelayUs(4500); // wait min 4.1ms
  56:LiquidCrystal_I2C.c **** 
  57:LiquidCrystal_I2C.c **** 	// third go!
  58:LiquidCrystal_I2C.c **** 	write4bits(0x03 << 4); 
  59:LiquidCrystal_I2C.c **** 	CyDelayUs(150);
  60:LiquidCrystal_I2C.c **** 
  61:LiquidCrystal_I2C.c **** 	// finally, set to 4-bit interface
  62:LiquidCrystal_I2C.c **** 	write4bits(0x02 << 4); 
  63:LiquidCrystal_I2C.c **** 
  64:LiquidCrystal_I2C.c **** 	// set # lines, font size, etc.
  65:LiquidCrystal_I2C.c **** 	command(LCD_FUNCTIONSET | _displayfunction);  
  66:LiquidCrystal_I2C.c **** 	
  67:LiquidCrystal_I2C.c **** 	// turn the display on with no cursor or blinking default
  68:LiquidCrystal_I2C.c **** 	_displaycontrol = LCD_DISPLAYON | LCD_CURSOROFF | LCD_BLINKOFF;
  69:LiquidCrystal_I2C.c **** 	display();
  70:LiquidCrystal_I2C.c **** 	
  71:LiquidCrystal_I2C.c **** 	// clear it off
  72:LiquidCrystal_I2C.c **** 	clear();
  73:LiquidCrystal_I2C.c **** 	
  74:LiquidCrystal_I2C.c **** 	// Initialize to default text direction (for roman languages)
  75:LiquidCrystal_I2C.c **** 	_displaymode = LCD_ENTRYLEFT | LCD_ENTRYSHIFTDECREMENT;
  76:LiquidCrystal_I2C.c **** 	
  77:LiquidCrystal_I2C.c **** 	// set the entry mode
  78:LiquidCrystal_I2C.c **** 	command(LCD_ENTRYMODESET | _displaymode);
  79:LiquidCrystal_I2C.c **** 	
  80:LiquidCrystal_I2C.c **** 	home();
  81:LiquidCrystal_I2C.c ****     
  82:LiquidCrystal_I2C.c ****     return;
  83:LiquidCrystal_I2C.c **** }
  84:LiquidCrystal_I2C.c **** 
  85:LiquidCrystal_I2C.c **** /********** high level commands, for the user! */
  86:LiquidCrystal_I2C.c **** void clear(void){
  87:LiquidCrystal_I2C.c ****     
  88:LiquidCrystal_I2C.c **** 	command(LCD_CLEARDISPLAY);// clear display, set cursor position to zero
  89:LiquidCrystal_I2C.c **** 	CyDelay(2);  // this command takes a long time!
  90:LiquidCrystal_I2C.c ****     
  91:LiquidCrystal_I2C.c ****     return;
  92:LiquidCrystal_I2C.c **** }
  93:LiquidCrystal_I2C.c **** 
ARM GAS  C:\Users\ANTONI~1\AppData\Local\Temp\ccz4EO4p.s 			page 4


  94:LiquidCrystal_I2C.c **** void home(void){
  95:LiquidCrystal_I2C.c **** 	
  96:LiquidCrystal_I2C.c ****     command(LCD_RETURNHOME);  // set cursor position to zero
  97:LiquidCrystal_I2C.c **** 	CyDelay(2);  // this command takes a long time!
  98:LiquidCrystal_I2C.c ****     
  99:LiquidCrystal_I2C.c ****     return;
 100:LiquidCrystal_I2C.c **** }
 101:LiquidCrystal_I2C.c **** 
 102:LiquidCrystal_I2C.c **** void setCursor(uint8_t col, uint8_t row){
 103:LiquidCrystal_I2C.c ****     
 104:LiquidCrystal_I2C.c **** 	int row_offsets[] = { 0x00, 0x40, 0x14, 0x54 };
 105:LiquidCrystal_I2C.c **** 	if (row > _rows) {
 106:LiquidCrystal_I2C.c **** 		row = _rows-1;    // we count rows starting w/0
 107:LiquidCrystal_I2C.c **** 	}
 108:LiquidCrystal_I2C.c **** 	command(LCD_SETDDRAMADDR | (col + row_offsets[row]));
 109:LiquidCrystal_I2C.c ****     
 110:LiquidCrystal_I2C.c ****     return;
 111:LiquidCrystal_I2C.c **** }
 112:LiquidCrystal_I2C.c **** 
 113:LiquidCrystal_I2C.c **** // Turn the display on/off (quickly)
 114:LiquidCrystal_I2C.c **** void noDisplay(void){
 115:LiquidCrystal_I2C.c **** 	
 116:LiquidCrystal_I2C.c ****     _displaycontrol &= ~LCD_DISPLAYON;
 117:LiquidCrystal_I2C.c **** 	command(LCD_DISPLAYCONTROL | _displaycontrol);
 118:LiquidCrystal_I2C.c ****     
 119:LiquidCrystal_I2C.c ****     return;
 120:LiquidCrystal_I2C.c **** }
 121:LiquidCrystal_I2C.c **** void display(void){
 122:LiquidCrystal_I2C.c ****     
 123:LiquidCrystal_I2C.c **** 	_displaycontrol |= LCD_DISPLAYON;
 124:LiquidCrystal_I2C.c **** 	command(LCD_DISPLAYCONTROL | _displaycontrol);
 125:LiquidCrystal_I2C.c ****     
 126:LiquidCrystal_I2C.c ****     return;
 127:LiquidCrystal_I2C.c **** }
 128:LiquidCrystal_I2C.c **** 
 129:LiquidCrystal_I2C.c **** // Turns the underline cursor on/off
 130:LiquidCrystal_I2C.c **** void noCursor(void){
 131:LiquidCrystal_I2C.c **** 	
 132:LiquidCrystal_I2C.c ****     _displaycontrol &= ~LCD_CURSORON;
 133:LiquidCrystal_I2C.c **** 	command(LCD_DISPLAYCONTROL | _displaycontrol);
 134:LiquidCrystal_I2C.c ****     
 135:LiquidCrystal_I2C.c ****     return;
 136:LiquidCrystal_I2C.c **** }
 137:LiquidCrystal_I2C.c **** void cursor(void){
 138:LiquidCrystal_I2C.c **** 	
 139:LiquidCrystal_I2C.c ****     _displaycontrol |= LCD_CURSORON;
 140:LiquidCrystal_I2C.c **** 	command(LCD_DISPLAYCONTROL | _displaycontrol);
 141:LiquidCrystal_I2C.c ****     
 142:LiquidCrystal_I2C.c ****     return;
 143:LiquidCrystal_I2C.c **** }
 144:LiquidCrystal_I2C.c **** 
 145:LiquidCrystal_I2C.c **** // Turn on and off the blinking cursor
 146:LiquidCrystal_I2C.c **** void noBlink(void){
 147:LiquidCrystal_I2C.c **** 	
 148:LiquidCrystal_I2C.c ****     _displaycontrol &= ~LCD_BLINKON;
 149:LiquidCrystal_I2C.c **** 	command(LCD_DISPLAYCONTROL | _displaycontrol);
 150:LiquidCrystal_I2C.c ****     
ARM GAS  C:\Users\ANTONI~1\AppData\Local\Temp\ccz4EO4p.s 			page 5


 151:LiquidCrystal_I2C.c ****     return;
 152:LiquidCrystal_I2C.c **** }
 153:LiquidCrystal_I2C.c **** void blink(void){
 154:LiquidCrystal_I2C.c ****     
 155:LiquidCrystal_I2C.c **** 	_displaycontrol |= LCD_BLINKON;
 156:LiquidCrystal_I2C.c **** 	command(LCD_DISPLAYCONTROL | _displaycontrol);
 157:LiquidCrystal_I2C.c ****     
 158:LiquidCrystal_I2C.c ****     return;
 159:LiquidCrystal_I2C.c **** }
 160:LiquidCrystal_I2C.c **** 
 161:LiquidCrystal_I2C.c **** // These commands scroll the display without changing the RAM
 162:LiquidCrystal_I2C.c **** void scrollDisplayLeft(void){
 163:LiquidCrystal_I2C.c ****     
 164:LiquidCrystal_I2C.c **** 	command(LCD_CURSORSHIFT | LCD_DISPLAYMOVE | LCD_MOVELEFT);
 165:LiquidCrystal_I2C.c ****     
 166:LiquidCrystal_I2C.c ****     return;
 167:LiquidCrystal_I2C.c **** }
 168:LiquidCrystal_I2C.c **** void scrollDisplayRight(void){
 169:LiquidCrystal_I2C.c **** 	
 170:LiquidCrystal_I2C.c ****     command(LCD_CURSORSHIFT | LCD_DISPLAYMOVE | LCD_MOVERIGHT);
 171:LiquidCrystal_I2C.c ****     
 172:LiquidCrystal_I2C.c ****     return;
 173:LiquidCrystal_I2C.c **** }
 174:LiquidCrystal_I2C.c **** 
 175:LiquidCrystal_I2C.c **** // This is for text that flows Left to Right
 176:LiquidCrystal_I2C.c **** void leftToRight(void){
 177:LiquidCrystal_I2C.c ****     
 178:LiquidCrystal_I2C.c **** 	_displaymode |= LCD_ENTRYLEFT;
 179:LiquidCrystal_I2C.c **** 	command(LCD_ENTRYMODESET | _displaymode);
 180:LiquidCrystal_I2C.c ****     
 181:LiquidCrystal_I2C.c ****     return;
 182:LiquidCrystal_I2C.c **** }
 183:LiquidCrystal_I2C.c **** 
 184:LiquidCrystal_I2C.c **** // This is for text that flows Right to Left
 185:LiquidCrystal_I2C.c **** void rightToLeft(void){
 186:LiquidCrystal_I2C.c ****     
 187:LiquidCrystal_I2C.c **** 	_displaymode &= ~LCD_ENTRYLEFT;
 188:LiquidCrystal_I2C.c **** 	command(LCD_ENTRYMODESET | _displaymode);
 189:LiquidCrystal_I2C.c ****     
 190:LiquidCrystal_I2C.c ****     return;
 191:LiquidCrystal_I2C.c **** }
 192:LiquidCrystal_I2C.c **** 
 193:LiquidCrystal_I2C.c **** // This will 'right justify' text from the cursor
 194:LiquidCrystal_I2C.c **** void autoscroll(void){
 195:LiquidCrystal_I2C.c **** 	
 196:LiquidCrystal_I2C.c ****     _displaymode |= LCD_ENTRYSHIFTINCREMENT;
 197:LiquidCrystal_I2C.c **** 	command(LCD_ENTRYMODESET | _displaymode);
 198:LiquidCrystal_I2C.c ****     
 199:LiquidCrystal_I2C.c ****     return;
 200:LiquidCrystal_I2C.c **** }
 201:LiquidCrystal_I2C.c **** 
 202:LiquidCrystal_I2C.c **** // This will 'left justify' text from the cursor
 203:LiquidCrystal_I2C.c **** void noAutoscroll(void){
 204:LiquidCrystal_I2C.c **** 	
 205:LiquidCrystal_I2C.c ****     _displaymode &= ~LCD_ENTRYSHIFTINCREMENT;
 206:LiquidCrystal_I2C.c **** 	command(LCD_ENTRYMODESET | _displaymode);
 207:LiquidCrystal_I2C.c ****     
ARM GAS  C:\Users\ANTONI~1\AppData\Local\Temp\ccz4EO4p.s 			page 6


 208:LiquidCrystal_I2C.c ****     return;
 209:LiquidCrystal_I2C.c **** }
 210:LiquidCrystal_I2C.c **** 
 211:LiquidCrystal_I2C.c **** // Allows us to fill the first 8 CGRAM locations
 212:LiquidCrystal_I2C.c **** // with custom characters
 213:LiquidCrystal_I2C.c **** void createChar(uint8_t location, uint8_t charmap[]){ uint32_t i = 0;
 214:LiquidCrystal_I2C.c **** 	
 215:LiquidCrystal_I2C.c ****     location &= 0x7; // we only have 8 locations 0-7
 216:LiquidCrystal_I2C.c **** 	command(LCD_SETCGRAMADDR | (location << 3));
 217:LiquidCrystal_I2C.c **** 	for (i=0; i<8; i++) {
 218:LiquidCrystal_I2C.c **** 		write(charmap[i]);
 219:LiquidCrystal_I2C.c **** 	}
 220:LiquidCrystal_I2C.c ****     
 221:LiquidCrystal_I2C.c ****     return;
 222:LiquidCrystal_I2C.c **** }
 223:LiquidCrystal_I2C.c **** 
 224:LiquidCrystal_I2C.c **** // Turn the (optional) backlight off/on
 225:LiquidCrystal_I2C.c **** void noBacklight(void) {
 226:LiquidCrystal_I2C.c **** 	
 227:LiquidCrystal_I2C.c ****     _backlightval=LCD_NOBACKLIGHT;
 228:LiquidCrystal_I2C.c **** 	expanderWrite(0);
 229:LiquidCrystal_I2C.c ****     
 230:LiquidCrystal_I2C.c ****     return;
 231:LiquidCrystal_I2C.c **** }
 232:LiquidCrystal_I2C.c **** 
 233:LiquidCrystal_I2C.c **** void backlight(void){
 234:LiquidCrystal_I2C.c ****     
 235:LiquidCrystal_I2C.c **** 	_backlightval=LCD_BACKLIGHT;
 236:LiquidCrystal_I2C.c **** 	expanderWrite(0);
 237:LiquidCrystal_I2C.c ****     
 238:LiquidCrystal_I2C.c ****     return;
 239:LiquidCrystal_I2C.c **** }
 240:LiquidCrystal_I2C.c **** 
 241:LiquidCrystal_I2C.c **** /*********** mid level commands, for sending data/cmds */
 242:LiquidCrystal_I2C.c **** 
 243:LiquidCrystal_I2C.c **** void command(uint8_t value){
 244:LiquidCrystal_I2C.c **** 	
 245:LiquidCrystal_I2C.c ****     send(value, 0);
 246:LiquidCrystal_I2C.c ****     
 247:LiquidCrystal_I2C.c ****     return;
 248:LiquidCrystal_I2C.c **** }
 249:LiquidCrystal_I2C.c **** 
 250:LiquidCrystal_I2C.c ****  void write(uint8_t value){
 251:LiquidCrystal_I2C.c ****     
 252:LiquidCrystal_I2C.c **** 	send(value, Rs);
 253:LiquidCrystal_I2C.c ****     
 254:LiquidCrystal_I2C.c ****     return;
 255:LiquidCrystal_I2C.c **** }
 256:LiquidCrystal_I2C.c **** 
 257:LiquidCrystal_I2C.c **** 
 258:LiquidCrystal_I2C.c **** /************ low level data pushing commands **********/
 259:LiquidCrystal_I2C.c **** 
 260:LiquidCrystal_I2C.c **** // write either command or data
 261:LiquidCrystal_I2C.c **** void send(uint8_t value, uint8_t mode){
 262:LiquidCrystal_I2C.c ****     
 263:LiquidCrystal_I2C.c **** 	uint8_t highnib=value&0xf0;
 264:LiquidCrystal_I2C.c **** 	uint8_t lownib=(value<<4)&0xf0;
ARM GAS  C:\Users\ANTONI~1\AppData\Local\Temp\ccz4EO4p.s 			page 7


 265:LiquidCrystal_I2C.c **** 	write4bits((highnib)|mode);
 266:LiquidCrystal_I2C.c **** 	write4bits((lownib)|mode); 
 267:LiquidCrystal_I2C.c ****     
 268:LiquidCrystal_I2C.c ****     return;
 269:LiquidCrystal_I2C.c **** }
 270:LiquidCrystal_I2C.c **** 
 271:LiquidCrystal_I2C.c **** void write4bits(uint8_t value) {
 272:LiquidCrystal_I2C.c ****     
 273:LiquidCrystal_I2C.c **** 	expanderWrite(value);
 274:LiquidCrystal_I2C.c **** 	pulseEnable(value);
 275:LiquidCrystal_I2C.c ****     
 276:LiquidCrystal_I2C.c ****     return;
 277:LiquidCrystal_I2C.c **** }
 278:LiquidCrystal_I2C.c **** 
 279:LiquidCrystal_I2C.c **** void expanderWrite(uint8_t _data){     
 280:LiquidCrystal_I2C.c ****     
 281:LiquidCrystal_I2C.c **** 	I2C_M_write_byte(_addr,_data | _backlightval);	   
 282:LiquidCrystal_I2C.c ****     
 283:LiquidCrystal_I2C.c ****     return;
 284:LiquidCrystal_I2C.c **** }
 285:LiquidCrystal_I2C.c **** 
 286:LiquidCrystal_I2C.c **** void pulseEnable(uint8_t _data){
 287:LiquidCrystal_I2C.c ****     
 288:LiquidCrystal_I2C.c **** 	expanderWrite(_data | En);	// En high
 289:LiquidCrystal_I2C.c **** 	CyDelayUs(1);		// enable pulse must be >450ns
 290:LiquidCrystal_I2C.c **** 	expanderWrite(_data & ~En);	// En low
 291:LiquidCrystal_I2C.c **** 	CyDelayUs(50);		// commands need > 37us to settle
 292:LiquidCrystal_I2C.c ****     
 293:LiquidCrystal_I2C.c ****     return;
 294:LiquidCrystal_I2C.c **** }
 295:LiquidCrystal_I2C.c **** 
 296:LiquidCrystal_I2C.c **** void load_custom_character(uint8_t char_num, uint8_t *rows){
 297:LiquidCrystal_I2C.c **** 	
 298:LiquidCrystal_I2C.c ****     createChar(char_num, rows);
 299:LiquidCrystal_I2C.c ****     
 300:LiquidCrystal_I2C.c ****     return;
 301:LiquidCrystal_I2C.c **** }
 302:LiquidCrystal_I2C.c **** 
 303:LiquidCrystal_I2C.c **** void setBacklight(uint8_t new_val){
 304:LiquidCrystal_I2C.c ****     
 305:LiquidCrystal_I2C.c **** 	if (new_val) {
 306:LiquidCrystal_I2C.c **** 		backlight();		// turn backlight on
 307:LiquidCrystal_I2C.c **** 	} else {
 308:LiquidCrystal_I2C.c **** 		noBacklight();		// turn backlight off
 309:LiquidCrystal_I2C.c **** 	}
 310:LiquidCrystal_I2C.c ****     
 311:LiquidCrystal_I2C.c ****     return;
 312:LiquidCrystal_I2C.c **** }
 313:LiquidCrystal_I2C.c **** 
 314:LiquidCrystal_I2C.c **** void LCD_print(char word[]){ uint32_t i = 0;
 315:LiquidCrystal_I2C.c ****     
 316:LiquidCrystal_I2C.c ****     uint8_t size = strlen(word);
 317:LiquidCrystal_I2C.c ****     
 318:LiquidCrystal_I2C.c ****     for (i = 0; i < size; i++){
 319:LiquidCrystal_I2C.c ****         write(word[i]);
 320:LiquidCrystal_I2C.c ****     }
 321:LiquidCrystal_I2C.c **** 
ARM GAS  C:\Users\ANTONI~1\AppData\Local\Temp\ccz4EO4p.s 			page 8


 322:LiquidCrystal_I2C.c ****     return;
 323:LiquidCrystal_I2C.c **** }
 324:LiquidCrystal_I2C.c **** 
 325:LiquidCrystal_I2C.c **** void I2C_M_write_byte(uint8_t addr,uint8_t data){ 
  79              		.loc 1 325 0
  80              		.cfi_startproc
  81              		@ args = 0, pretend = 0, frame = 0
  82              		@ frame_needed = 0, uses_anonymous_args = 0
  83              	.LVL5:
  84 0000 10B5     		push	{r4, lr}
  85              		.cfi_def_cfa_offset 8
  86              		.cfi_offset 4, -8
  87              		.cfi_offset 14, -4
  88 0002 0C00     		movs	r4, r1
 326:LiquidCrystal_I2C.c **** 
 327:LiquidCrystal_I2C.c **** #if CY_PSOC5
 328:LiquidCrystal_I2C.c ****     I2C_MasterSendStart(addr, 0);
 329:LiquidCrystal_I2C.c ****     I2C_MasterWriteByte(data);
 330:LiquidCrystal_I2C.c ****     I2C_MasterSendStop();
 331:LiquidCrystal_I2C.c **** #elif CY_PSOC4
 332:LiquidCrystal_I2C.c ****     //I2C_I2CMasterSendStart(addr, 0,);
 333:LiquidCrystal_I2C.c ****     //I2C_I2CMasterWriteByte(data);
 334:LiquidCrystal_I2C.c ****     //I2C_I2CMasterSendStop();
 335:LiquidCrystal_I2C.c ****     
 336:LiquidCrystal_I2C.c ****     I2C_I2CMasterSendStart(addr, 0, 2);
  89              		.loc 1 336 0
  90 0004 0222     		movs	r2, #2
  91 0006 0021     		movs	r1, #0
  92              	.LVL6:
  93 0008 FFF7FEFF 		bl	I2C_I2CMasterSendStart
  94              	.LVL7:
 337:LiquidCrystal_I2C.c ****     I2C_I2CMasterWriteByte(data, 2);
  95              		.loc 1 337 0
  96 000c 0221     		movs	r1, #2
  97 000e 2000     		movs	r0, r4
  98 0010 FFF7FEFF 		bl	I2C_I2CMasterWriteByte
  99              	.LVL8:
 338:LiquidCrystal_I2C.c ****     I2C_I2CMasterSendStop(2);
 100              		.loc 1 338 0
 101 0014 0220     		movs	r0, #2
 102 0016 FFF7FEFF 		bl	I2C_I2CMasterSendStop
 103              	.LVL9:
 339:LiquidCrystal_I2C.c **** #endif
 340:LiquidCrystal_I2C.c ****     
 341:LiquidCrystal_I2C.c ****     return;
 342:LiquidCrystal_I2C.c **** }
 104              		.loc 1 342 0
 105              		@ sp needed
 106 001a 10BD     		pop	{r4, pc}
 107              		.cfi_endproc
 108              	.LFE64:
 109              		.size	I2C_M_write_byte, .-I2C_M_write_byte
 110              		.section	.text.expanderWrite,"ax",%progbits
 111              		.align	2
 112              		.global	expanderWrite
 113              		.code	16
 114              		.thumb_func
ARM GAS  C:\Users\ANTONI~1\AppData\Local\Temp\ccz4EO4p.s 			page 9


 115              		.type	expanderWrite, %function
 116              	expanderWrite:
 117              	.LFB59:
 279:LiquidCrystal_I2C.c ****     
 118              		.loc 1 279 0
 119              		.cfi_startproc
 120              		@ args = 0, pretend = 0, frame = 0
 121              		@ frame_needed = 0, uses_anonymous_args = 0
 122              	.LVL10:
 123 0000 10B5     		push	{r4, lr}
 124              		.cfi_def_cfa_offset 8
 125              		.cfi_offset 4, -8
 126              		.cfi_offset 14, -4
 281:LiquidCrystal_I2C.c ****     
 127              		.loc 1 281 0
 128 0002 044B     		ldr	r3, .L6
 129 0004 1B78     		ldrb	r3, [r3]
 130 0006 0100     		movs	r1, r0
 131 0008 1943     		orrs	r1, r3
 132 000a 034B     		ldr	r3, .L6+4
 133 000c 1878     		ldrb	r0, [r3]
 134              	.LVL11:
 135 000e FFF7FEFF 		bl	I2C_M_write_byte
 136              	.LVL12:
 284:LiquidCrystal_I2C.c **** 
 137              		.loc 1 284 0
 138              		@ sp needed
 139 0012 10BD     		pop	{r4, pc}
 140              	.L7:
 141              		.align	2
 142              	.L6:
 143 0014 00000000 		.word	_backlightval
 144 0018 00000000 		.word	_addr
 145              		.cfi_endproc
 146              	.LFE59:
 147              		.size	expanderWrite, .-expanderWrite
 148              		.section	.text.noBacklight,"ax",%progbits
 149              		.align	2
 150              		.global	noBacklight
 151              		.code	16
 152              		.thumb_func
 153              		.type	noBacklight, %function
 154              	noBacklight:
 155              	.LFB53:
 225:LiquidCrystal_I2C.c **** 	
 156              		.loc 1 225 0
 157              		.cfi_startproc
 158              		@ args = 0, pretend = 0, frame = 0
 159              		@ frame_needed = 0, uses_anonymous_args = 0
 160 0000 10B5     		push	{r4, lr}
 161              		.cfi_def_cfa_offset 8
 162              		.cfi_offset 4, -8
 163              		.cfi_offset 14, -4
 227:LiquidCrystal_I2C.c **** 	expanderWrite(0);
 164              		.loc 1 227 0
 165 0002 0022     		movs	r2, #0
 166 0004 024B     		ldr	r3, .L9
ARM GAS  C:\Users\ANTONI~1\AppData\Local\Temp\ccz4EO4p.s 			page 10


 167 0006 1A70     		strb	r2, [r3]
 228:LiquidCrystal_I2C.c ****     
 168              		.loc 1 228 0
 169 0008 0020     		movs	r0, #0
 170 000a FFF7FEFF 		bl	expanderWrite
 171              	.LVL13:
 231:LiquidCrystal_I2C.c **** 
 172              		.loc 1 231 0
 173              		@ sp needed
 174 000e 10BD     		pop	{r4, pc}
 175              	.L10:
 176              		.align	2
 177              	.L9:
 178 0010 00000000 		.word	_backlightval
 179              		.cfi_endproc
 180              	.LFE53:
 181              		.size	noBacklight, .-noBacklight
 182              		.section	.text.backlight,"ax",%progbits
 183              		.align	2
 184              		.global	backlight
 185              		.code	16
 186              		.thumb_func
 187              		.type	backlight, %function
 188              	backlight:
 189              	.LFB54:
 233:LiquidCrystal_I2C.c ****     
 190              		.loc 1 233 0
 191              		.cfi_startproc
 192              		@ args = 0, pretend = 0, frame = 0
 193              		@ frame_needed = 0, uses_anonymous_args = 0
 194 0000 10B5     		push	{r4, lr}
 195              		.cfi_def_cfa_offset 8
 196              		.cfi_offset 4, -8
 197              		.cfi_offset 14, -4
 235:LiquidCrystal_I2C.c **** 	expanderWrite(0);
 198              		.loc 1 235 0
 199 0002 0822     		movs	r2, #8
 200 0004 024B     		ldr	r3, .L12
 201 0006 1A70     		strb	r2, [r3]
 236:LiquidCrystal_I2C.c ****     
 202              		.loc 1 236 0
 203 0008 0020     		movs	r0, #0
 204 000a FFF7FEFF 		bl	expanderWrite
 205              	.LVL14:
 239:LiquidCrystal_I2C.c **** 
 206              		.loc 1 239 0
 207              		@ sp needed
 208 000e 10BD     		pop	{r4, pc}
 209              	.L13:
 210              		.align	2
 211              	.L12:
 212 0010 00000000 		.word	_backlightval
 213              		.cfi_endproc
 214              	.LFE54:
 215              		.size	backlight, .-backlight
 216              		.section	.text.setBacklight,"ax",%progbits
 217              		.align	2
ARM GAS  C:\Users\ANTONI~1\AppData\Local\Temp\ccz4EO4p.s 			page 11


 218              		.global	setBacklight
 219              		.code	16
 220              		.thumb_func
 221              		.type	setBacklight, %function
 222              	setBacklight:
 223              	.LFB62:
 303:LiquidCrystal_I2C.c ****     
 224              		.loc 1 303 0
 225              		.cfi_startproc
 226              		@ args = 0, pretend = 0, frame = 0
 227              		@ frame_needed = 0, uses_anonymous_args = 0
 228              	.LVL15:
 229 0000 10B5     		push	{r4, lr}
 230              		.cfi_def_cfa_offset 8
 231              		.cfi_offset 4, -8
 232              		.cfi_offset 14, -4
 305:LiquidCrystal_I2C.c **** 		backlight();		// turn backlight on
 233              		.loc 1 305 0
 234 0002 0028     		cmp	r0, #0
 235 0004 02D0     		beq	.L15
 306:LiquidCrystal_I2C.c **** 	} else {
 236              		.loc 1 306 0
 237 0006 FFF7FEFF 		bl	backlight
 238              	.LVL16:
 239 000a 01E0     		b	.L14
 240              	.LVL17:
 241              	.L15:
 308:LiquidCrystal_I2C.c **** 	}
 242              		.loc 1 308 0
 243 000c FFF7FEFF 		bl	noBacklight
 244              	.LVL18:
 245              	.L14:
 312:LiquidCrystal_I2C.c **** 
 246              		.loc 1 312 0
 247              		@ sp needed
 248 0010 10BD     		pop	{r4, pc}
 249              		.cfi_endproc
 250              	.LFE62:
 251              		.size	setBacklight, .-setBacklight
 252 0012 C046     		.section	.text.pulseEnable,"ax",%progbits
 253              		.align	2
 254              		.global	pulseEnable
 255              		.code	16
 256              		.thumb_func
 257              		.type	pulseEnable, %function
 258              	pulseEnable:
 259              	.LFB60:
 286:LiquidCrystal_I2C.c ****     
 260              		.loc 1 286 0
 261              		.cfi_startproc
 262              		@ args = 0, pretend = 0, frame = 0
 263              		@ frame_needed = 0, uses_anonymous_args = 0
 264              	.LVL19:
 265 0000 10B5     		push	{r4, lr}
 266              		.cfi_def_cfa_offset 8
 267              		.cfi_offset 4, -8
 268              		.cfi_offset 14, -4
ARM GAS  C:\Users\ANTONI~1\AppData\Local\Temp\ccz4EO4p.s 			page 12


 269 0002 0400     		movs	r4, r0
 288:LiquidCrystal_I2C.c **** 	CyDelayUs(1);		// enable pulse must be >450ns
 270              		.loc 1 288 0
 271 0004 0420     		movs	r0, #4
 272              	.LVL20:
 273 0006 0300     		movs	r3, r0
 274 0008 2343     		orrs	r3, r4
 275 000a D8B2     		uxtb	r0, r3
 276 000c FFF7FEFF 		bl	expanderWrite
 277              	.LVL21:
 289:LiquidCrystal_I2C.c **** 	expanderWrite(_data & ~En);	// En low
 278              		.loc 1 289 0
 279 0010 0120     		movs	r0, #1
 280 0012 FFF7FEFF 		bl	CyDelayUs
 281              	.LVL22:
 290:LiquidCrystal_I2C.c **** 	CyDelayUs(50);		// commands need > 37us to settle
 282              		.loc 1 290 0
 283 0016 0423     		movs	r3, #4
 284 0018 2000     		movs	r0, r4
 285 001a 9843     		bics	r0, r3
 286 001c FFF7FEFF 		bl	expanderWrite
 287              	.LVL23:
 291:LiquidCrystal_I2C.c ****     
 288              		.loc 1 291 0
 289 0020 3220     		movs	r0, #50
 290 0022 FFF7FEFF 		bl	CyDelayUs
 291              	.LVL24:
 294:LiquidCrystal_I2C.c **** 
 292              		.loc 1 294 0
 293              		@ sp needed
 294 0026 10BD     		pop	{r4, pc}
 295              		.cfi_endproc
 296              	.LFE60:
 297              		.size	pulseEnable, .-pulseEnable
 298              		.section	.text.write4bits,"ax",%progbits
 299              		.align	2
 300              		.global	write4bits
 301              		.code	16
 302              		.thumb_func
 303              		.type	write4bits, %function
 304              	write4bits:
 305              	.LFB58:
 271:LiquidCrystal_I2C.c ****     
 306              		.loc 1 271 0
 307              		.cfi_startproc
 308              		@ args = 0, pretend = 0, frame = 0
 309              		@ frame_needed = 0, uses_anonymous_args = 0
 310              	.LVL25:
 311 0000 10B5     		push	{r4, lr}
 312              		.cfi_def_cfa_offset 8
 313              		.cfi_offset 4, -8
 314              		.cfi_offset 14, -4
 315 0002 0400     		movs	r4, r0
 273:LiquidCrystal_I2C.c **** 	pulseEnable(value);
 316              		.loc 1 273 0
 317 0004 FFF7FEFF 		bl	expanderWrite
 318              	.LVL26:
ARM GAS  C:\Users\ANTONI~1\AppData\Local\Temp\ccz4EO4p.s 			page 13


 274:LiquidCrystal_I2C.c ****     
 319              		.loc 1 274 0
 320 0008 2000     		movs	r0, r4
 321 000a FFF7FEFF 		bl	pulseEnable
 322              	.LVL27:
 277:LiquidCrystal_I2C.c **** 
 323              		.loc 1 277 0
 324              		@ sp needed
 325 000e 10BD     		pop	{r4, pc}
 326              		.cfi_endproc
 327              	.LFE58:
 328              		.size	write4bits, .-write4bits
 329              		.section	.text.send,"ax",%progbits
 330              		.align	2
 331              		.global	send
 332              		.code	16
 333              		.thumb_func
 334              		.type	send, %function
 335              	send:
 336              	.LFB57:
 261:LiquidCrystal_I2C.c ****     
 337              		.loc 1 261 0
 338              		.cfi_startproc
 339              		@ args = 0, pretend = 0, frame = 0
 340              		@ frame_needed = 0, uses_anonymous_args = 0
 341              	.LVL28:
 342 0000 70B5     		push	{r4, r5, r6, lr}
 343              		.cfi_def_cfa_offset 16
 344              		.cfi_offset 4, -16
 345              		.cfi_offset 5, -12
 346              		.cfi_offset 6, -8
 347              		.cfi_offset 14, -4
 348 0002 0D00     		movs	r5, r1
 263:LiquidCrystal_I2C.c **** 	uint8_t lownib=(value<<4)&0xf0;
 349              		.loc 1 263 0
 350 0004 0F23     		movs	r3, #15
 351 0006 0200     		movs	r2, r0
 352 0008 9A43     		bics	r2, r3
 353 000a 1300     		movs	r3, r2
 354              	.LVL29:
 264:LiquidCrystal_I2C.c **** 	write4bits((highnib)|mode);
 355              		.loc 1 264 0
 356 000c 0001     		lsls	r0, r0, #4
 357              	.LVL30:
 358 000e C4B2     		uxtb	r4, r0
 359              	.LVL31:
 265:LiquidCrystal_I2C.c **** 	write4bits((lownib)|mode); 
 360              		.loc 1 265 0
 361 0010 0B43     		orrs	r3, r1
 362              	.LVL32:
 363 0012 1800     		movs	r0, r3
 364 0014 FFF7FEFF 		bl	write4bits
 365              	.LVL33:
 266:LiquidCrystal_I2C.c ****     
 366              		.loc 1 266 0
 367 0018 2000     		movs	r0, r4
 368 001a 2843     		orrs	r0, r5
ARM GAS  C:\Users\ANTONI~1\AppData\Local\Temp\ccz4EO4p.s 			page 14


 369 001c FFF7FEFF 		bl	write4bits
 370              	.LVL34:
 269:LiquidCrystal_I2C.c **** 
 371              		.loc 1 269 0
 372              		@ sp needed
 373              	.LVL35:
 374 0020 70BD     		pop	{r4, r5, r6, pc}
 375              		.cfi_endproc
 376              	.LFE57:
 377              		.size	send, .-send
 378 0022 C046     		.section	.text.command,"ax",%progbits
 379              		.align	2
 380              		.global	command
 381              		.code	16
 382              		.thumb_func
 383              		.type	command, %function
 384              	command:
 385              	.LFB55:
 243:LiquidCrystal_I2C.c **** 	
 386              		.loc 1 243 0
 387              		.cfi_startproc
 388              		@ args = 0, pretend = 0, frame = 0
 389              		@ frame_needed = 0, uses_anonymous_args = 0
 390              	.LVL36:
 391 0000 10B5     		push	{r4, lr}
 392              		.cfi_def_cfa_offset 8
 393              		.cfi_offset 4, -8
 394              		.cfi_offset 14, -4
 245:LiquidCrystal_I2C.c ****     
 395              		.loc 1 245 0
 396 0002 0021     		movs	r1, #0
 397 0004 FFF7FEFF 		bl	send
 398              	.LVL37:
 248:LiquidCrystal_I2C.c **** 
 399              		.loc 1 248 0
 400              		@ sp needed
 401 0008 10BD     		pop	{r4, pc}
 402              		.cfi_endproc
 403              	.LFE55:
 404              		.size	command, .-command
 405 000a C046     		.section	.text.clear,"ax",%progbits
 406              		.align	2
 407              		.global	clear
 408              		.code	16
 409              		.thumb_func
 410              		.type	clear, %function
 411              	clear:
 412              	.LFB37:
  86:LiquidCrystal_I2C.c ****     
 413              		.loc 1 86 0
 414              		.cfi_startproc
 415              		@ args = 0, pretend = 0, frame = 0
 416              		@ frame_needed = 0, uses_anonymous_args = 0
 417 0000 10B5     		push	{r4, lr}
 418              		.cfi_def_cfa_offset 8
 419              		.cfi_offset 4, -8
 420              		.cfi_offset 14, -4
ARM GAS  C:\Users\ANTONI~1\AppData\Local\Temp\ccz4EO4p.s 			page 15


  88:LiquidCrystal_I2C.c **** 	CyDelay(2);  // this command takes a long time!
 421              		.loc 1 88 0
 422 0002 0120     		movs	r0, #1
 423 0004 FFF7FEFF 		bl	command
 424              	.LVL38:
  89:LiquidCrystal_I2C.c ****     
 425              		.loc 1 89 0
 426 0008 0220     		movs	r0, #2
 427 000a FFF7FEFF 		bl	CyDelay
 428              	.LVL39:
  92:LiquidCrystal_I2C.c **** 
 429              		.loc 1 92 0
 430              		@ sp needed
 431 000e 10BD     		pop	{r4, pc}
 432              		.cfi_endproc
 433              	.LFE37:
 434              		.size	clear, .-clear
 435              		.section	.text.home,"ax",%progbits
 436              		.align	2
 437              		.global	home
 438              		.code	16
 439              		.thumb_func
 440              		.type	home, %function
 441              	home:
 442              	.LFB38:
  94:LiquidCrystal_I2C.c **** 	
 443              		.loc 1 94 0
 444              		.cfi_startproc
 445              		@ args = 0, pretend = 0, frame = 0
 446              		@ frame_needed = 0, uses_anonymous_args = 0
 447 0000 10B5     		push	{r4, lr}
 448              		.cfi_def_cfa_offset 8
 449              		.cfi_offset 4, -8
 450              		.cfi_offset 14, -4
  96:LiquidCrystal_I2C.c **** 	CyDelay(2);  // this command takes a long time!
 451              		.loc 1 96 0
 452 0002 0220     		movs	r0, #2
 453 0004 FFF7FEFF 		bl	command
 454              	.LVL40:
  97:LiquidCrystal_I2C.c ****     
 455              		.loc 1 97 0
 456 0008 0220     		movs	r0, #2
 457 000a FFF7FEFF 		bl	CyDelay
 458              	.LVL41:
 100:LiquidCrystal_I2C.c **** 
 459              		.loc 1 100 0
 460              		@ sp needed
 461 000e 10BD     		pop	{r4, pc}
 462              		.cfi_endproc
 463              	.LFE38:
 464              		.size	home, .-home
 465              		.section	.text.setCursor,"ax",%progbits
 466              		.align	2
 467              		.global	setCursor
 468              		.code	16
 469              		.thumb_func
 470              		.type	setCursor, %function
ARM GAS  C:\Users\ANTONI~1\AppData\Local\Temp\ccz4EO4p.s 			page 16


 471              	setCursor:
 472              	.LFB39:
 102:LiquidCrystal_I2C.c ****     
 473              		.loc 1 102 0
 474              		.cfi_startproc
 475              		@ args = 0, pretend = 0, frame = 16
 476              		@ frame_needed = 0, uses_anonymous_args = 0
 477              	.LVL42:
 478 0000 70B5     		push	{r4, r5, r6, lr}
 479              		.cfi_def_cfa_offset 16
 480              		.cfi_offset 4, -16
 481              		.cfi_offset 5, -12
 482              		.cfi_offset 6, -8
 483              		.cfi_offset 14, -4
 484 0002 84B0     		sub	sp, sp, #16
 485              		.cfi_def_cfa_offset 32
 104:LiquidCrystal_I2C.c **** 	if (row > _rows) {
 486              		.loc 1 104 0
 487 0004 6B46     		mov	r3, sp
 488 0006 0C4A     		ldr	r2, .L25
 489 0008 70CA     		ldmia	r2!, {r4, r5, r6}
 490 000a 70C3     		stmia	r3!, {r4, r5, r6}
 491 000c 1C00     		movs	r4, r3
 492 000e 1368     		ldr	r3, [r2]
 493 0010 2360     		str	r3, [r4]
 105:LiquidCrystal_I2C.c **** 		row = _rows-1;    // we count rows starting w/0
 494              		.loc 1 105 0
 495 0012 0A4B     		ldr	r3, .L25+4
 496 0014 1B78     		ldrb	r3, [r3]
 497 0016 8B42     		cmp	r3, r1
 498 0018 01D2     		bcs	.L24
 106:LiquidCrystal_I2C.c **** 	}
 499              		.loc 1 106 0
 500 001a 013B     		subs	r3, r3, #1
 501 001c D9B2     		uxtb	r1, r3
 502              	.LVL43:
 503              	.L24:
 108:LiquidCrystal_I2C.c ****     
 504              		.loc 1 108 0
 505 001e 8900     		lsls	r1, r1, #2
 506              	.LVL44:
 507 0020 6B46     		mov	r3, sp
 508 0022 CB58     		ldr	r3, [r1, r3]
 509 0024 C018     		adds	r0, r0, r3
 510              	.LVL45:
 511 0026 8023     		movs	r3, #128
 512 0028 5B42     		rsbs	r3, r3, #0
 513 002a 1843     		orrs	r0, r3
 514 002c C0B2     		uxtb	r0, r0
 515 002e FFF7FEFF 		bl	command
 516              	.LVL46:
 111:LiquidCrystal_I2C.c **** 
 517              		.loc 1 111 0
 518 0032 04B0     		add	sp, sp, #16
 519              		@ sp needed
 520 0034 70BD     		pop	{r4, r5, r6, pc}
 521              	.L26:
ARM GAS  C:\Users\ANTONI~1\AppData\Local\Temp\ccz4EO4p.s 			page 17


 522 0036 C046     		.align	2
 523              	.L25:
 524 0038 00000000 		.word	.LANCHOR0
 525 003c 00000000 		.word	_rows
 526              		.cfi_endproc
 527              	.LFE39:
 528              		.size	setCursor, .-setCursor
 529              		.section	.text.noDisplay,"ax",%progbits
 530              		.align	2
 531              		.global	noDisplay
 532              		.code	16
 533              		.thumb_func
 534              		.type	noDisplay, %function
 535              	noDisplay:
 536              	.LFB40:
 114:LiquidCrystal_I2C.c **** 	
 537              		.loc 1 114 0
 538              		.cfi_startproc
 539              		@ args = 0, pretend = 0, frame = 0
 540              		@ frame_needed = 0, uses_anonymous_args = 0
 541 0000 10B5     		push	{r4, lr}
 542              		.cfi_def_cfa_offset 8
 543              		.cfi_offset 4, -8
 544              		.cfi_offset 14, -4
 116:LiquidCrystal_I2C.c **** 	command(LCD_DISPLAYCONTROL | _displaycontrol);
 545              		.loc 1 116 0
 546 0002 054B     		ldr	r3, .L28
 547 0004 1878     		ldrb	r0, [r3]
 548 0006 0422     		movs	r2, #4
 549 0008 9043     		bics	r0, r2
 550 000a 1870     		strb	r0, [r3]
 117:LiquidCrystal_I2C.c ****     
 551              		.loc 1 117 0
 552 000c 0823     		movs	r3, #8
 553 000e 1843     		orrs	r0, r3
 554 0010 C0B2     		uxtb	r0, r0
 555 0012 FFF7FEFF 		bl	command
 556              	.LVL47:
 120:LiquidCrystal_I2C.c **** void display(void){
 557              		.loc 1 120 0
 558              		@ sp needed
 559 0016 10BD     		pop	{r4, pc}
 560              	.L29:
 561              		.align	2
 562              	.L28:
 563 0018 00000000 		.word	_displaycontrol
 564              		.cfi_endproc
 565              	.LFE40:
 566              		.size	noDisplay, .-noDisplay
 567              		.section	.text.display,"ax",%progbits
 568              		.align	2
 569              		.global	display
 570              		.code	16
 571              		.thumb_func
 572              		.type	display, %function
 573              	display:
 574              	.LFB41:
ARM GAS  C:\Users\ANTONI~1\AppData\Local\Temp\ccz4EO4p.s 			page 18


 121:LiquidCrystal_I2C.c ****     
 575              		.loc 1 121 0
 576              		.cfi_startproc
 577              		@ args = 0, pretend = 0, frame = 0
 578              		@ frame_needed = 0, uses_anonymous_args = 0
 579 0000 10B5     		push	{r4, lr}
 580              		.cfi_def_cfa_offset 8
 581              		.cfi_offset 4, -8
 582              		.cfi_offset 14, -4
 123:LiquidCrystal_I2C.c **** 	command(LCD_DISPLAYCONTROL | _displaycontrol);
 583              		.loc 1 123 0
 584 0002 064A     		ldr	r2, .L31
 585 0004 1078     		ldrb	r0, [r2]
 586 0006 0423     		movs	r3, #4
 587 0008 1843     		orrs	r0, r3
 588 000a C0B2     		uxtb	r0, r0
 589 000c 1070     		strb	r0, [r2]
 124:LiquidCrystal_I2C.c ****     
 590              		.loc 1 124 0
 591 000e 0823     		movs	r3, #8
 592 0010 1843     		orrs	r0, r3
 593 0012 C0B2     		uxtb	r0, r0
 594 0014 FFF7FEFF 		bl	command
 595              	.LVL48:
 127:LiquidCrystal_I2C.c **** 
 596              		.loc 1 127 0
 597              		@ sp needed
 598 0018 10BD     		pop	{r4, pc}
 599              	.L32:
 600 001a C046     		.align	2
 601              	.L31:
 602 001c 00000000 		.word	_displaycontrol
 603              		.cfi_endproc
 604              	.LFE41:
 605              		.size	display, .-display
 606              		.section	.text.noCursor,"ax",%progbits
 607              		.align	2
 608              		.global	noCursor
 609              		.code	16
 610              		.thumb_func
 611              		.type	noCursor, %function
 612              	noCursor:
 613              	.LFB42:
 130:LiquidCrystal_I2C.c **** 	
 614              		.loc 1 130 0
 615              		.cfi_startproc
 616              		@ args = 0, pretend = 0, frame = 0
 617              		@ frame_needed = 0, uses_anonymous_args = 0
 618 0000 10B5     		push	{r4, lr}
 619              		.cfi_def_cfa_offset 8
 620              		.cfi_offset 4, -8
 621              		.cfi_offset 14, -4
 132:LiquidCrystal_I2C.c **** 	command(LCD_DISPLAYCONTROL | _displaycontrol);
 622              		.loc 1 132 0
 623 0002 054B     		ldr	r3, .L34
 624 0004 1878     		ldrb	r0, [r3]
 625 0006 0222     		movs	r2, #2
ARM GAS  C:\Users\ANTONI~1\AppData\Local\Temp\ccz4EO4p.s 			page 19


 626 0008 9043     		bics	r0, r2
 627 000a 1870     		strb	r0, [r3]
 133:LiquidCrystal_I2C.c ****     
 628              		.loc 1 133 0
 629 000c 0823     		movs	r3, #8
 630 000e 1843     		orrs	r0, r3
 631 0010 C0B2     		uxtb	r0, r0
 632 0012 FFF7FEFF 		bl	command
 633              	.LVL49:
 136:LiquidCrystal_I2C.c **** void cursor(void){
 634              		.loc 1 136 0
 635              		@ sp needed
 636 0016 10BD     		pop	{r4, pc}
 637              	.L35:
 638              		.align	2
 639              	.L34:
 640 0018 00000000 		.word	_displaycontrol
 641              		.cfi_endproc
 642              	.LFE42:
 643              		.size	noCursor, .-noCursor
 644              		.section	.text.cursor,"ax",%progbits
 645              		.align	2
 646              		.global	cursor
 647              		.code	16
 648              		.thumb_func
 649              		.type	cursor, %function
 650              	cursor:
 651              	.LFB43:
 137:LiquidCrystal_I2C.c **** 	
 652              		.loc 1 137 0
 653              		.cfi_startproc
 654              		@ args = 0, pretend = 0, frame = 0
 655              		@ frame_needed = 0, uses_anonymous_args = 0
 656 0000 10B5     		push	{r4, lr}
 657              		.cfi_def_cfa_offset 8
 658              		.cfi_offset 4, -8
 659              		.cfi_offset 14, -4
 139:LiquidCrystal_I2C.c **** 	command(LCD_DISPLAYCONTROL | _displaycontrol);
 660              		.loc 1 139 0
 661 0002 064A     		ldr	r2, .L37
 662 0004 1078     		ldrb	r0, [r2]
 663 0006 0223     		movs	r3, #2
 664 0008 1843     		orrs	r0, r3
 665 000a C0B2     		uxtb	r0, r0
 666 000c 1070     		strb	r0, [r2]
 140:LiquidCrystal_I2C.c ****     
 667              		.loc 1 140 0
 668 000e 0823     		movs	r3, #8
 669 0010 1843     		orrs	r0, r3
 670 0012 C0B2     		uxtb	r0, r0
 671 0014 FFF7FEFF 		bl	command
 672              	.LVL50:
 143:LiquidCrystal_I2C.c **** 
 673              		.loc 1 143 0
 674              		@ sp needed
 675 0018 10BD     		pop	{r4, pc}
 676              	.L38:
ARM GAS  C:\Users\ANTONI~1\AppData\Local\Temp\ccz4EO4p.s 			page 20


 677 001a C046     		.align	2
 678              	.L37:
 679 001c 00000000 		.word	_displaycontrol
 680              		.cfi_endproc
 681              	.LFE43:
 682              		.size	cursor, .-cursor
 683              		.section	.text.noBlink,"ax",%progbits
 684              		.align	2
 685              		.global	noBlink
 686              		.code	16
 687              		.thumb_func
 688              		.type	noBlink, %function
 689              	noBlink:
 690              	.LFB44:
 146:LiquidCrystal_I2C.c **** 	
 691              		.loc 1 146 0
 692              		.cfi_startproc
 693              		@ args = 0, pretend = 0, frame = 0
 694              		@ frame_needed = 0, uses_anonymous_args = 0
 695 0000 10B5     		push	{r4, lr}
 696              		.cfi_def_cfa_offset 8
 697              		.cfi_offset 4, -8
 698              		.cfi_offset 14, -4
 148:LiquidCrystal_I2C.c **** 	command(LCD_DISPLAYCONTROL | _displaycontrol);
 699              		.loc 1 148 0
 700 0002 054B     		ldr	r3, .L40
 701 0004 1878     		ldrb	r0, [r3]
 702 0006 0122     		movs	r2, #1
 703 0008 9043     		bics	r0, r2
 704 000a 1870     		strb	r0, [r3]
 149:LiquidCrystal_I2C.c ****     
 705              		.loc 1 149 0
 706 000c 0823     		movs	r3, #8
 707 000e 1843     		orrs	r0, r3
 708 0010 C0B2     		uxtb	r0, r0
 709 0012 FFF7FEFF 		bl	command
 710              	.LVL51:
 152:LiquidCrystal_I2C.c **** void blink(void){
 711              		.loc 1 152 0
 712              		@ sp needed
 713 0016 10BD     		pop	{r4, pc}
 714              	.L41:
 715              		.align	2
 716              	.L40:
 717 0018 00000000 		.word	_displaycontrol
 718              		.cfi_endproc
 719              	.LFE44:
 720              		.size	noBlink, .-noBlink
 721              		.section	.text.blink,"ax",%progbits
 722              		.align	2
 723              		.global	blink
 724              		.code	16
 725              		.thumb_func
 726              		.type	blink, %function
 727              	blink:
 728              	.LFB45:
 153:LiquidCrystal_I2C.c ****     
ARM GAS  C:\Users\ANTONI~1\AppData\Local\Temp\ccz4EO4p.s 			page 21


 729              		.loc 1 153 0
 730              		.cfi_startproc
 731              		@ args = 0, pretend = 0, frame = 0
 732              		@ frame_needed = 0, uses_anonymous_args = 0
 733 0000 10B5     		push	{r4, lr}
 734              		.cfi_def_cfa_offset 8
 735              		.cfi_offset 4, -8
 736              		.cfi_offset 14, -4
 155:LiquidCrystal_I2C.c **** 	command(LCD_DISPLAYCONTROL | _displaycontrol);
 737              		.loc 1 155 0
 738 0002 064A     		ldr	r2, .L43
 739 0004 1078     		ldrb	r0, [r2]
 740 0006 0123     		movs	r3, #1
 741 0008 1843     		orrs	r0, r3
 742 000a C0B2     		uxtb	r0, r0
 743 000c 1070     		strb	r0, [r2]
 156:LiquidCrystal_I2C.c ****     
 744              		.loc 1 156 0
 745 000e 0823     		movs	r3, #8
 746 0010 1843     		orrs	r0, r3
 747 0012 C0B2     		uxtb	r0, r0
 748 0014 FFF7FEFF 		bl	command
 749              	.LVL52:
 159:LiquidCrystal_I2C.c **** 
 750              		.loc 1 159 0
 751              		@ sp needed
 752 0018 10BD     		pop	{r4, pc}
 753              	.L44:
 754 001a C046     		.align	2
 755              	.L43:
 756 001c 00000000 		.word	_displaycontrol
 757              		.cfi_endproc
 758              	.LFE45:
 759              		.size	blink, .-blink
 760              		.section	.text.scrollDisplayLeft,"ax",%progbits
 761              		.align	2
 762              		.global	scrollDisplayLeft
 763              		.code	16
 764              		.thumb_func
 765              		.type	scrollDisplayLeft, %function
 766              	scrollDisplayLeft:
 767              	.LFB46:
 162:LiquidCrystal_I2C.c ****     
 768              		.loc 1 162 0
 769              		.cfi_startproc
 770              		@ args = 0, pretend = 0, frame = 0
 771              		@ frame_needed = 0, uses_anonymous_args = 0
 772 0000 10B5     		push	{r4, lr}
 773              		.cfi_def_cfa_offset 8
 774              		.cfi_offset 4, -8
 775              		.cfi_offset 14, -4
 164:LiquidCrystal_I2C.c ****     
 776              		.loc 1 164 0
 777 0002 1820     		movs	r0, #24
 778 0004 FFF7FEFF 		bl	command
 779              	.LVL53:
 167:LiquidCrystal_I2C.c **** void scrollDisplayRight(void){
ARM GAS  C:\Users\ANTONI~1\AppData\Local\Temp\ccz4EO4p.s 			page 22


 780              		.loc 1 167 0
 781              		@ sp needed
 782 0008 10BD     		pop	{r4, pc}
 783              		.cfi_endproc
 784              	.LFE46:
 785              		.size	scrollDisplayLeft, .-scrollDisplayLeft
 786 000a C046     		.section	.text.scrollDisplayRight,"ax",%progbits
 787              		.align	2
 788              		.global	scrollDisplayRight
 789              		.code	16
 790              		.thumb_func
 791              		.type	scrollDisplayRight, %function
 792              	scrollDisplayRight:
 793              	.LFB47:
 168:LiquidCrystal_I2C.c **** 	
 794              		.loc 1 168 0
 795              		.cfi_startproc
 796              		@ args = 0, pretend = 0, frame = 0
 797              		@ frame_needed = 0, uses_anonymous_args = 0
 798 0000 10B5     		push	{r4, lr}
 799              		.cfi_def_cfa_offset 8
 800              		.cfi_offset 4, -8
 801              		.cfi_offset 14, -4
 170:LiquidCrystal_I2C.c ****     
 802              		.loc 1 170 0
 803 0002 1C20     		movs	r0, #28
 804 0004 FFF7FEFF 		bl	command
 805              	.LVL54:
 173:LiquidCrystal_I2C.c **** 
 806              		.loc 1 173 0
 807              		@ sp needed
 808 0008 10BD     		pop	{r4, pc}
 809              		.cfi_endproc
 810              	.LFE47:
 811              		.size	scrollDisplayRight, .-scrollDisplayRight
 812 000a C046     		.section	.text.leftToRight,"ax",%progbits
 813              		.align	2
 814              		.global	leftToRight
 815              		.code	16
 816              		.thumb_func
 817              		.type	leftToRight, %function
 818              	leftToRight:
 819              	.LFB48:
 176:LiquidCrystal_I2C.c ****     
 820              		.loc 1 176 0
 821              		.cfi_startproc
 822              		@ args = 0, pretend = 0, frame = 0
 823              		@ frame_needed = 0, uses_anonymous_args = 0
 824 0000 10B5     		push	{r4, lr}
 825              		.cfi_def_cfa_offset 8
 826              		.cfi_offset 4, -8
 827              		.cfi_offset 14, -4
 178:LiquidCrystal_I2C.c **** 	command(LCD_ENTRYMODESET | _displaymode);
 828              		.loc 1 178 0
 829 0002 064A     		ldr	r2, .L48
 830 0004 1078     		ldrb	r0, [r2]
 831 0006 0223     		movs	r3, #2
ARM GAS  C:\Users\ANTONI~1\AppData\Local\Temp\ccz4EO4p.s 			page 23


 832 0008 1843     		orrs	r0, r3
 833 000a C0B2     		uxtb	r0, r0
 834 000c 1070     		strb	r0, [r2]
 179:LiquidCrystal_I2C.c ****     
 835              		.loc 1 179 0
 836 000e 0423     		movs	r3, #4
 837 0010 1843     		orrs	r0, r3
 838 0012 C0B2     		uxtb	r0, r0
 839 0014 FFF7FEFF 		bl	command
 840              	.LVL55:
 182:LiquidCrystal_I2C.c **** 
 841              		.loc 1 182 0
 842              		@ sp needed
 843 0018 10BD     		pop	{r4, pc}
 844              	.L49:
 845 001a C046     		.align	2
 846              	.L48:
 847 001c 00000000 		.word	_displaymode
 848              		.cfi_endproc
 849              	.LFE48:
 850              		.size	leftToRight, .-leftToRight
 851              		.section	.text.rightToLeft,"ax",%progbits
 852              		.align	2
 853              		.global	rightToLeft
 854              		.code	16
 855              		.thumb_func
 856              		.type	rightToLeft, %function
 857              	rightToLeft:
 858              	.LFB49:
 185:LiquidCrystal_I2C.c ****     
 859              		.loc 1 185 0
 860              		.cfi_startproc
 861              		@ args = 0, pretend = 0, frame = 0
 862              		@ frame_needed = 0, uses_anonymous_args = 0
 863 0000 10B5     		push	{r4, lr}
 864              		.cfi_def_cfa_offset 8
 865              		.cfi_offset 4, -8
 866              		.cfi_offset 14, -4
 187:LiquidCrystal_I2C.c **** 	command(LCD_ENTRYMODESET | _displaymode);
 867              		.loc 1 187 0
 868 0002 054B     		ldr	r3, .L51
 869 0004 1878     		ldrb	r0, [r3]
 870 0006 0222     		movs	r2, #2
 871 0008 9043     		bics	r0, r2
 872 000a 1870     		strb	r0, [r3]
 188:LiquidCrystal_I2C.c ****     
 873              		.loc 1 188 0
 874 000c 0423     		movs	r3, #4
 875 000e 1843     		orrs	r0, r3
 876 0010 C0B2     		uxtb	r0, r0
 877 0012 FFF7FEFF 		bl	command
 878              	.LVL56:
 191:LiquidCrystal_I2C.c **** 
 879              		.loc 1 191 0
 880              		@ sp needed
 881 0016 10BD     		pop	{r4, pc}
 882              	.L52:
ARM GAS  C:\Users\ANTONI~1\AppData\Local\Temp\ccz4EO4p.s 			page 24


 883              		.align	2
 884              	.L51:
 885 0018 00000000 		.word	_displaymode
 886              		.cfi_endproc
 887              	.LFE49:
 888              		.size	rightToLeft, .-rightToLeft
 889              		.section	.text.autoscroll,"ax",%progbits
 890              		.align	2
 891              		.global	autoscroll
 892              		.code	16
 893              		.thumb_func
 894              		.type	autoscroll, %function
 895              	autoscroll:
 896              	.LFB50:
 194:LiquidCrystal_I2C.c **** 	
 897              		.loc 1 194 0
 898              		.cfi_startproc
 899              		@ args = 0, pretend = 0, frame = 0
 900              		@ frame_needed = 0, uses_anonymous_args = 0
 901 0000 10B5     		push	{r4, lr}
 902              		.cfi_def_cfa_offset 8
 903              		.cfi_offset 4, -8
 904              		.cfi_offset 14, -4
 196:LiquidCrystal_I2C.c **** 	command(LCD_ENTRYMODESET | _displaymode);
 905              		.loc 1 196 0
 906 0002 064A     		ldr	r2, .L54
 907 0004 1078     		ldrb	r0, [r2]
 908 0006 0123     		movs	r3, #1
 909 0008 1843     		orrs	r0, r3
 910 000a C0B2     		uxtb	r0, r0
 911 000c 1070     		strb	r0, [r2]
 197:LiquidCrystal_I2C.c ****     
 912              		.loc 1 197 0
 913 000e 0423     		movs	r3, #4
 914 0010 1843     		orrs	r0, r3
 915 0012 C0B2     		uxtb	r0, r0
 916 0014 FFF7FEFF 		bl	command
 917              	.LVL57:
 200:LiquidCrystal_I2C.c **** 
 918              		.loc 1 200 0
 919              		@ sp needed
 920 0018 10BD     		pop	{r4, pc}
 921              	.L55:
 922 001a C046     		.align	2
 923              	.L54:
 924 001c 00000000 		.word	_displaymode
 925              		.cfi_endproc
 926              	.LFE50:
 927              		.size	autoscroll, .-autoscroll
 928              		.section	.text.noAutoscroll,"ax",%progbits
 929              		.align	2
 930              		.global	noAutoscroll
 931              		.code	16
 932              		.thumb_func
 933              		.type	noAutoscroll, %function
 934              	noAutoscroll:
 935              	.LFB51:
ARM GAS  C:\Users\ANTONI~1\AppData\Local\Temp\ccz4EO4p.s 			page 25


 203:LiquidCrystal_I2C.c **** 	
 936              		.loc 1 203 0
 937              		.cfi_startproc
 938              		@ args = 0, pretend = 0, frame = 0
 939              		@ frame_needed = 0, uses_anonymous_args = 0
 940 0000 10B5     		push	{r4, lr}
 941              		.cfi_def_cfa_offset 8
 942              		.cfi_offset 4, -8
 943              		.cfi_offset 14, -4
 205:LiquidCrystal_I2C.c **** 	command(LCD_ENTRYMODESET | _displaymode);
 944              		.loc 1 205 0
 945 0002 054B     		ldr	r3, .L57
 946 0004 1878     		ldrb	r0, [r3]
 947 0006 0122     		movs	r2, #1
 948 0008 9043     		bics	r0, r2
 949 000a 1870     		strb	r0, [r3]
 206:LiquidCrystal_I2C.c ****     
 950              		.loc 1 206 0
 951 000c 0423     		movs	r3, #4
 952 000e 1843     		orrs	r0, r3
 953 0010 C0B2     		uxtb	r0, r0
 954 0012 FFF7FEFF 		bl	command
 955              	.LVL58:
 209:LiquidCrystal_I2C.c **** 
 956              		.loc 1 209 0
 957              		@ sp needed
 958 0016 10BD     		pop	{r4, pc}
 959              	.L58:
 960              		.align	2
 961              	.L57:
 962 0018 00000000 		.word	_displaymode
 963              		.cfi_endproc
 964              	.LFE51:
 965              		.size	noAutoscroll, .-noAutoscroll
 966              		.section	.text.write,"ax",%progbits
 967              		.align	2
 968              		.global	write
 969              		.code	16
 970              		.thumb_func
 971              		.type	write, %function
 972              	write:
 973              	.LFB56:
 250:LiquidCrystal_I2C.c ****     
 974              		.loc 1 250 0
 975              		.cfi_startproc
 976              		@ args = 0, pretend = 0, frame = 0
 977              		@ frame_needed = 0, uses_anonymous_args = 0
 978              	.LVL59:
 979 0000 10B5     		push	{r4, lr}
 980              		.cfi_def_cfa_offset 8
 981              		.cfi_offset 4, -8
 982              		.cfi_offset 14, -4
 252:LiquidCrystal_I2C.c ****     
 983              		.loc 1 252 0
 984 0002 0121     		movs	r1, #1
 985 0004 FFF7FEFF 		bl	send
 986              	.LVL60:
ARM GAS  C:\Users\ANTONI~1\AppData\Local\Temp\ccz4EO4p.s 			page 26


 255:LiquidCrystal_I2C.c **** 
 987              		.loc 1 255 0
 988              		@ sp needed
 989 0008 10BD     		pop	{r4, pc}
 990              		.cfi_endproc
 991              	.LFE56:
 992              		.size	write, .-write
 993 000a C046     		.section	.text.createChar,"ax",%progbits
 994              		.align	2
 995              		.global	createChar
 996              		.code	16
 997              		.thumb_func
 998              		.type	createChar, %function
 999              	createChar:
 1000              	.LFB52:
 213:LiquidCrystal_I2C.c **** 	
 1001              		.loc 1 213 0
 1002              		.cfi_startproc
 1003              		@ args = 0, pretend = 0, frame = 0
 1004              		@ frame_needed = 0, uses_anonymous_args = 0
 1005              	.LVL61:
 1006 0000 70B5     		push	{r4, r5, r6, lr}
 1007              		.cfi_def_cfa_offset 16
 1008              		.cfi_offset 4, -16
 1009              		.cfi_offset 5, -12
 1010              		.cfi_offset 6, -8
 1011              		.cfi_offset 14, -4
 1012 0002 0D00     		movs	r5, r1
 1013              	.LVL62:
 215:LiquidCrystal_I2C.c **** 	command(LCD_SETCGRAMADDR | (location << 3));
 1014              		.loc 1 215 0
 1015 0004 0723     		movs	r3, #7
 1016 0006 1840     		ands	r0, r3
 1017              	.LVL63:
 216:LiquidCrystal_I2C.c **** 	for (i=0; i<8; i++) {
 1018              		.loc 1 216 0
 1019 0008 C000     		lsls	r0, r0, #3
 1020              	.LVL64:
 1021 000a 4023     		movs	r3, #64
 1022 000c 1843     		orrs	r0, r3
 1023 000e C0B2     		uxtb	r0, r0
 1024 0010 FFF7FEFF 		bl	command
 1025              	.LVL65:
 217:LiquidCrystal_I2C.c **** 		write(charmap[i]);
 1026              		.loc 1 217 0
 1027 0014 0024     		movs	r4, #0
 1028 0016 03E0     		b	.L61
 1029              	.LVL66:
 1030              	.L62:
 218:LiquidCrystal_I2C.c **** 	}
 1031              		.loc 1 218 0 discriminator 3
 1032 0018 285D     		ldrb	r0, [r5, r4]
 1033 001a FFF7FEFF 		bl	write
 1034              	.LVL67:
 217:LiquidCrystal_I2C.c **** 		write(charmap[i]);
 1035              		.loc 1 217 0 discriminator 3
 1036 001e 0134     		adds	r4, r4, #1
ARM GAS  C:\Users\ANTONI~1\AppData\Local\Temp\ccz4EO4p.s 			page 27


 1037              	.LVL68:
 1038              	.L61:
 217:LiquidCrystal_I2C.c **** 		write(charmap[i]);
 1039              		.loc 1 217 0 is_stmt 0 discriminator 1
 1040 0020 072C     		cmp	r4, #7
 1041 0022 F9D9     		bls	.L62
 222:LiquidCrystal_I2C.c **** 
 1042              		.loc 1 222 0 is_stmt 1
 1043              		@ sp needed
 1044              	.LVL69:
 1045              	.LVL70:
 1046 0024 70BD     		pop	{r4, r5, r6, pc}
 1047              		.cfi_endproc
 1048              	.LFE52:
 1049              		.size	createChar, .-createChar
 1050 0026 C046     		.section	.text.load_custom_character,"ax",%progbits
 1051              		.align	2
 1052              		.global	load_custom_character
 1053              		.code	16
 1054              		.thumb_func
 1055              		.type	load_custom_character, %function
 1056              	load_custom_character:
 1057              	.LFB61:
 296:LiquidCrystal_I2C.c **** 	
 1058              		.loc 1 296 0
 1059              		.cfi_startproc
 1060              		@ args = 0, pretend = 0, frame = 0
 1061              		@ frame_needed = 0, uses_anonymous_args = 0
 1062              	.LVL71:
 1063 0000 10B5     		push	{r4, lr}
 1064              		.cfi_def_cfa_offset 8
 1065              		.cfi_offset 4, -8
 1066              		.cfi_offset 14, -4
 298:LiquidCrystal_I2C.c ****     
 1067              		.loc 1 298 0
 1068 0002 FFF7FEFF 		bl	createChar
 1069              	.LVL72:
 301:LiquidCrystal_I2C.c **** 
 1070              		.loc 1 301 0
 1071              		@ sp needed
 1072 0006 10BD     		pop	{r4, pc}
 1073              		.cfi_endproc
 1074              	.LFE61:
 1075              		.size	load_custom_character, .-load_custom_character
 1076              		.section	.text.LCD_print,"ax",%progbits
 1077              		.align	2
 1078              		.global	LCD_print
 1079              		.code	16
 1080              		.thumb_func
 1081              		.type	LCD_print, %function
 1082              	LCD_print:
 1083              	.LFB63:
 314:LiquidCrystal_I2C.c ****     
 1084              		.loc 1 314 0
 1085              		.cfi_startproc
 1086              		@ args = 0, pretend = 0, frame = 0
 1087              		@ frame_needed = 0, uses_anonymous_args = 0
ARM GAS  C:\Users\ANTONI~1\AppData\Local\Temp\ccz4EO4p.s 			page 28


 1088              	.LVL73:
 1089 0000 70B5     		push	{r4, r5, r6, lr}
 1090              		.cfi_def_cfa_offset 16
 1091              		.cfi_offset 4, -16
 1092              		.cfi_offset 5, -12
 1093              		.cfi_offset 6, -8
 1094              		.cfi_offset 14, -4
 1095 0002 0600     		movs	r6, r0
 1096              	.LVL74:
 316:LiquidCrystal_I2C.c ****     
 1097              		.loc 1 316 0
 1098 0004 FFF7FEFF 		bl	strlen
 1099              	.LVL75:
 1100 0008 0500     		movs	r5, r0
 1101              	.LVL76:
 318:LiquidCrystal_I2C.c ****         write(word[i]);
 1102              		.loc 1 318 0
 1103 000a 0024     		movs	r4, #0
 1104 000c 03E0     		b	.L65
 1105              	.LVL77:
 1106              	.L66:
 319:LiquidCrystal_I2C.c ****     }
 1107              		.loc 1 319 0 discriminator 3
 1108 000e 305D     		ldrb	r0, [r6, r4]
 1109 0010 FFF7FEFF 		bl	write
 1110              	.LVL78:
 318:LiquidCrystal_I2C.c ****         write(word[i]);
 1111              		.loc 1 318 0 discriminator 3
 1112 0014 0134     		adds	r4, r4, #1
 1113              	.LVL79:
 1114              	.L65:
 318:LiquidCrystal_I2C.c ****         write(word[i]);
 1115              		.loc 1 318 0 is_stmt 0 discriminator 1
 1116 0016 FF23     		movs	r3, #255
 1117 0018 2B40     		ands	r3, r5
 1118 001a 9C42     		cmp	r4, r3
 1119 001c F7D3     		bcc	.L66
 323:LiquidCrystal_I2C.c **** 
 1120              		.loc 1 323 0 is_stmt 1
 1121              		@ sp needed
 1122              	.LVL80:
 1123              	.LVL81:
 1124              	.LVL82:
 1125 001e 70BD     		pop	{r4, r5, r6, pc}
 1126              		.cfi_endproc
 1127              	.LFE63:
 1128              		.size	LCD_print, .-LCD_print
 1129              		.section	.text.begin,"ax",%progbits
 1130              		.align	2
 1131              		.global	begin
 1132              		.code	16
 1133              		.thumb_func
 1134              		.type	begin, %function
 1135              	begin:
 1136              	.LFB36:
  23:LiquidCrystal_I2C.c ****   
 1137              		.loc 1 23 0
ARM GAS  C:\Users\ANTONI~1\AppData\Local\Temp\ccz4EO4p.s 			page 29


 1138              		.cfi_startproc
 1139              		@ args = 0, pretend = 0, frame = 0
 1140              		@ frame_needed = 0, uses_anonymous_args = 0
 1141 0000 10B5     		push	{r4, lr}
 1142              		.cfi_def_cfa_offset 8
 1143              		.cfi_offset 4, -8
 1144              		.cfi_offset 14, -4
  25:LiquidCrystal_I2C.c **** 
 1145              		.loc 1 25 0
 1146 0002 0022     		movs	r2, #0
 1147 0004 254B     		ldr	r3, .L70
 1148 0006 1A70     		strb	r2, [r3]
  27:LiquidCrystal_I2C.c **** 		_displayfunction |= LCD_2LINE;
 1149              		.loc 1 27 0
 1150 0008 254B     		ldr	r3, .L70+4
 1151 000a 1B78     		ldrb	r3, [r3]
 1152 000c 012B     		cmp	r3, #1
 1153 000e 02D9     		bls	.L68
  28:LiquidCrystal_I2C.c **** 	}
 1154              		.loc 1 28 0
 1155 0010 0821     		movs	r1, #8
 1156 0012 224A     		ldr	r2, .L70
 1157 0014 1170     		strb	r1, [r2]
 1158              	.L68:
  32:LiquidCrystal_I2C.c **** 		_displayfunction |= LCD_5x10DOTS;
 1159              		.loc 1 32 0
 1160 0016 234A     		ldr	r2, .L70+8
 1161 0018 1278     		ldrb	r2, [r2]
 1162 001a 002A     		cmp	r2, #0
 1163 001c 06D0     		beq	.L69
  32:LiquidCrystal_I2C.c **** 		_displayfunction |= LCD_5x10DOTS;
 1164              		.loc 1 32 0 is_stmt 0 discriminator 1
 1165 001e 012B     		cmp	r3, #1
 1166 0020 04D1     		bne	.L69
  33:LiquidCrystal_I2C.c **** 	}
 1167              		.loc 1 33 0 is_stmt 1
 1168 0022 1E4A     		ldr	r2, .L70
 1169 0024 1178     		ldrb	r1, [r2]
 1170 0026 0423     		movs	r3, #4
 1171 0028 0B43     		orrs	r3, r1
 1172 002a 1370     		strb	r3, [r2]
 1173              	.L69:
  39:LiquidCrystal_I2C.c **** 
 1174              		.loc 1 39 0
 1175 002c 3220     		movs	r0, #50
 1176 002e FFF7FEFF 		bl	CyDelay
 1177              	.LVL83:
  42:LiquidCrystal_I2C.c **** 	CyDelay(1000);
 1178              		.loc 1 42 0
 1179 0032 1D4B     		ldr	r3, .L70+12
 1180 0034 1878     		ldrb	r0, [r3]
 1181 0036 FFF7FEFF 		bl	expanderWrite
 1182              	.LVL84:
  43:LiquidCrystal_I2C.c **** 
 1183              		.loc 1 43 0
 1184 003a FA20     		movs	r0, #250
 1185 003c 8000     		lsls	r0, r0, #2
ARM GAS  C:\Users\ANTONI~1\AppData\Local\Temp\ccz4EO4p.s 			page 30


 1186 003e FFF7FEFF 		bl	CyDelay
 1187              	.LVL85:
  50:LiquidCrystal_I2C.c **** 	CyDelayUs(4500); // wait min 4.1ms
 1188              		.loc 1 50 0
 1189 0042 3020     		movs	r0, #48
 1190 0044 FFF7FEFF 		bl	write4bits
 1191              	.LVL86:
  51:LiquidCrystal_I2C.c **** 
 1192              		.loc 1 51 0
 1193 0048 184C     		ldr	r4, .L70+16
 1194 004a 2000     		movs	r0, r4
 1195 004c FFF7FEFF 		bl	CyDelayUs
 1196              	.LVL87:
  54:LiquidCrystal_I2C.c **** 	CyDelayUs(4500); // wait min 4.1ms
 1197              		.loc 1 54 0
 1198 0050 3020     		movs	r0, #48
 1199 0052 FFF7FEFF 		bl	write4bits
 1200              	.LVL88:
  55:LiquidCrystal_I2C.c **** 
 1201              		.loc 1 55 0
 1202 0056 2000     		movs	r0, r4
 1203 0058 FFF7FEFF 		bl	CyDelayUs
 1204              	.LVL89:
  58:LiquidCrystal_I2C.c **** 	CyDelayUs(150);
 1205              		.loc 1 58 0
 1206 005c 3020     		movs	r0, #48
 1207 005e FFF7FEFF 		bl	write4bits
 1208              	.LVL90:
  59:LiquidCrystal_I2C.c **** 
 1209              		.loc 1 59 0
 1210 0062 9620     		movs	r0, #150
 1211 0064 FFF7FEFF 		bl	CyDelayUs
 1212              	.LVL91:
  62:LiquidCrystal_I2C.c **** 
 1213              		.loc 1 62 0
 1214 0068 2020     		movs	r0, #32
 1215 006a FFF7FEFF 		bl	write4bits
 1216              	.LVL92:
  65:LiquidCrystal_I2C.c **** 	
 1217              		.loc 1 65 0
 1218 006e 0B4B     		ldr	r3, .L70
 1219 0070 1878     		ldrb	r0, [r3]
 1220 0072 2023     		movs	r3, #32
 1221 0074 1843     		orrs	r0, r3
 1222 0076 C0B2     		uxtb	r0, r0
 1223 0078 FFF7FEFF 		bl	command
 1224              	.LVL93:
  68:LiquidCrystal_I2C.c **** 	display();
 1225              		.loc 1 68 0
 1226 007c 0422     		movs	r2, #4
 1227 007e 0C4B     		ldr	r3, .L70+20
 1228 0080 1A70     		strb	r2, [r3]
  69:LiquidCrystal_I2C.c **** 	
 1229              		.loc 1 69 0
 1230 0082 FFF7FEFF 		bl	display
 1231              	.LVL94:
  72:LiquidCrystal_I2C.c **** 	
ARM GAS  C:\Users\ANTONI~1\AppData\Local\Temp\ccz4EO4p.s 			page 31


 1232              		.loc 1 72 0
 1233 0086 FFF7FEFF 		bl	clear
 1234              	.LVL95:
  75:LiquidCrystal_I2C.c **** 	
 1235              		.loc 1 75 0
 1236 008a 0222     		movs	r2, #2
 1237 008c 094B     		ldr	r3, .L70+24
 1238 008e 1A70     		strb	r2, [r3]
  78:LiquidCrystal_I2C.c **** 	
 1239              		.loc 1 78 0
 1240 0090 0620     		movs	r0, #6
 1241 0092 FFF7FEFF 		bl	command
 1242              	.LVL96:
  80:LiquidCrystal_I2C.c ****     
 1243              		.loc 1 80 0
 1244 0096 FFF7FEFF 		bl	home
 1245              	.LVL97:
  83:LiquidCrystal_I2C.c **** 
 1246              		.loc 1 83 0
 1247              		@ sp needed
 1248 009a 10BD     		pop	{r4, pc}
 1249              	.L71:
 1250              		.align	2
 1251              	.L70:
 1252 009c 00000000 		.word	_displayfunction
 1253 00a0 00000000 		.word	_rows
 1254 00a4 00000000 		.word	_charsize
 1255 00a8 00000000 		.word	_backlightval
 1256 00ac 94110000 		.word	4500
 1257 00b0 00000000 		.word	_displaycontrol
 1258 00b4 00000000 		.word	_displaymode
 1259              		.cfi_endproc
 1260              	.LFE36:
 1261              		.size	begin, .-begin
 1262              		.comm	_backlightval,1,1
 1263              		.comm	_charsize,1,1
 1264              		.comm	_rows,1,1
 1265              		.comm	_cols,1,1
 1266              		.comm	_displaymode,1,1
 1267              		.comm	_displaycontrol,1,1
 1268              		.comm	_displayfunction,1,1
 1269              		.comm	_addr,1,1
 1270              		.section	.rodata
 1271              		.align	2
 1272              		.set	.LANCHOR0,. + 0
 1273              	.LC0:
 1274 0000 00000000 		.word	0
 1275 0004 40000000 		.word	64
 1276 0008 14000000 		.word	20
 1277 000c 54000000 		.word	84
 1278              		.text
 1279              	.Letext0:
 1280              		.file 2 "c:\\program files (x86)\\cypress\\psoc creator\\4.2\\psoc creator\\import\\gnu\\arm\\5.4.
 1281              		.file 3 "c:\\program files (x86)\\cypress\\psoc creator\\4.2\\psoc creator\\import\\gnu\\arm\\5.4.
 1282              		.file 4 "Generated_Source\\PSoC4/I2C_I2C.h"
 1283              		.file 5 "Generated_Source\\PSoC4/CyLib.h"
 1284              		.file 6 "c:\\program files (x86)\\cypress\\psoc creator\\4.2\\psoc creator\\import\\gnu\\arm\\5.4.
ARM GAS  C:\Users\ANTONI~1\AppData\Local\Temp\ccz4EO4p.s 			page 32


 1285              		.file 7 "Generated_Source\\PSoC4/BLE_Stack.h"