ARM GAS  C:\Users\ANTONI~1\AppData\Local\Temp\ccqbSE6S.s 			page 1


   1              		.syntax unified
   2              		.cpu cortex-m0
   3              		.fpu softvfp
   4              		.eabi_attribute 20, 1
   5              		.eabi_attribute 21, 1
   6              		.eabi_attribute 23, 3
   7              		.eabi_attribute 24, 1
   8              		.eabi_attribute 25, 1
   9              		.eabi_attribute 26, 1
  10              		.eabi_attribute 30, 1
  11              		.eabi_attribute 34, 0
  12              		.eabi_attribute 18, 4
  13              		.thumb
  14              		.syntax unified
  15              		.file	"main.c"
  16              		.text
  17              	.Ltext0:
  18              		.cfi_sections	.debug_frame
  19              		.section	.text.lectura_DHT22,"ax",%progbits
  20              		.align	2
  21              		.global	lectura_DHT22
  22              		.code	16
  23              		.thumb_func
  24              		.type	lectura_DHT22, %function
  25              	lectura_DHT22:
  26              	.LFB36:
  27              		.file 1 "main.c"
   1:main.c        **** /* ========================================
   2:main.c        ****  *
   3:main.c        ****  * Copyright YOUR COMPANY, THE YEAR
   4:main.c        ****  * All Rights Reserved
   5:main.c        ****  * UNPUBLISHED, LICENSED SOFTWARE.
   6:main.c        ****  *
   7:main.c        ****  * CONFIDENTIAL AND PROPRIETARY INFORMATION
   8:main.c        ****  * WHICH IS THE PROPERTY OF your company.
   9:main.c        ****  *
  10:main.c        ****  * ========================================
  11:main.c        **** */
  12:main.c        **** 
  13:main.c        **** #include "project.h"
  14:main.c        **** #include "stdio.h"
  15:main.c        **** #include "main.h"
  16:main.c        **** #include "BLE_APP.h" 
  17:main.c        **** #include "LiquidCrystal_I2C.h" //Librería de la LCD
  18:main.c        **** 
  19:main.c        **** uint32_t Addr = 0x27; //Dirección de la LCD usada
  20:main.c        **** 
  21:main.c        **** //Variables del sensor de temperatura y humedad DHT22
  22:main.c        **** static int temperatura=99;     //Temperatura total
  23:main.c        **** static int temperatura1=0;     //Primer Byte de temperatura
  24:main.c        **** static int temperatura2=0;     //Segundo Byte de temperatura
  25:main.c        **** static int temperaturaant=200; //Temperatura inicial para la comparación
  26:main.c        **** 
  27:main.c        **** static int humedad=99;        //Humedad total
  28:main.c        **** static int humedad1=0;        //Primer Byte de humedad
  29:main.c        **** static int humedad2=0;        //Segundo Byte de humedad
  30:main.c        **** static int humedadant=150;    //Humedad inicial para la comparación
ARM GAS  C:\Users\ANTONI~1\AppData\Local\Temp\ccqbSE6S.s 			page 2


  31:main.c        **** 
  32:main.c        **** //Variables del sensor de proximidad
  33:main.c        **** extern uint16 CapSense_SensorSignal[CapSense_TOTAL_SENSOR_COUNT];
  34:main.c        **** 
  35:main.c        **** #define PROX_RANGE_INIT     50 //Proximidad máxima que se puede medir
  36:main.c        **** 
  37:main.c        **** //Variables conexión BLE
  38:main.c        **** CYBLE_GATTS_HANDLE_VALUE_NTF_T notificationHandle;  //Humedad
  39:main.c        **** CYBLE_GATTS_HANDLE_VALUE_NTF_T notificationHandle1; //Temperatura
  40:main.c        **** CYBLE_GATTS_HANDLE_VALUE_NTF_T notificationHandle2; //Proximidad
  41:main.c        **** CYBLE_CONN_HANDLE_T connectionHandle;
  42:main.c        **** 
  43:main.c        **** int lectura_DHT22(){                        //Obtener los datos de temperatura y humedad del sensor
  28              		.loc 1 43 0
  29              		.cfi_startproc
  30              		@ args = 0, pretend = 0, frame = 16
  31              		@ frame_needed = 0, uses_anonymous_args = 0
  32 0000 F0B5     		push	{r4, r5, r6, r7, lr}
  33              		.cfi_def_cfa_offset 20
  34              		.cfi_offset 4, -20
  35              		.cfi_offset 5, -16
  36              		.cfi_offset 6, -12
  37              		.cfi_offset 7, -8
  38              		.cfi_offset 14, -4
  39 0002 4746     		mov	r7, r8
  40 0004 80B4     		push	{r7}
  41              		.cfi_def_cfa_offset 24
  42              		.cfi_offset 8, -24
  43 0006 84B0     		sub	sp, sp, #16
  44              		.cfi_def_cfa_offset 40
  45              	.LVL0:
  44:main.c        ****     
  45:main.c        ****     //Variables para obtener datos de temperatura y humedad
  46:main.c        ****     uint8 IState;
  47:main.c        ****     uint8 bytes[5]; 
  48:main.c        ****     uint8 cnt = 7; 
  49:main.c        ****     uint8 idx = 0; 
  50:main.c        ****     
  51:main.c        ****     int i;
  52:main.c        ****     int calc=0; 
  53:main.c        ****     int timeout=0; 
  54:main.c        ****     
  55:main.c        ****     IState=CyEnterCriticalSection();  //Desactiva las interrupciones y devuelve un valor de estado 
  46              		.loc 1 55 0
  47 0008 FFF7FEFF 		bl	CyEnterCriticalSection
  48              	.LVL1:
  49 000c 0190     		str	r0, [sp, #4]
  50              	.LVL2:
  56:main.c        ****    
  57:main.c        ****     //Se pone a 0 los bytes donde se van a almacenar los datos de humedad y temperatura.
  58:main.c        ****     for (i=0; i< 5; i++)
  51              		.loc 1 58 0
  52 000e 0023     		movs	r3, #0
  53 0010 03E0     		b	.L2
  54              	.LVL3:
  55              	.L3:
  59:main.c        ****         bytes[i] = 0; 
ARM GAS  C:\Users\ANTONI~1\AppData\Local\Temp\ccqbSE6S.s 			page 3


  56              		.loc 1 59 0 discriminator 3
  57 0012 0022     		movs	r2, #0
  58 0014 02A9     		add	r1, sp, #8
  59 0016 CA54     		strb	r2, [r1, r3]
  58:main.c        ****         bytes[i] = 0; 
  60              		.loc 1 58 0 discriminator 3
  61 0018 0133     		adds	r3, r3, #1
  62              	.LVL4:
  63              	.L2:
  58:main.c        ****         bytes[i] = 0; 
  64              		.loc 1 58 0 is_stmt 0 discriminator 1
  65 001a 042B     		cmp	r3, #4
  66 001c F9DD     		ble	.L3
  60:main.c        ****                         
  61:main.c        ****     /*Se realiza el "timing" del sensor DHT22, donde 1 representará cuando está arriba y 0 cuando
  62:main.c        ****     por configuración previa comienza en 1.*/
  63:main.c        ****         
  64:main.c        ****     DHT_Write(0u);                    //Se cambia el valor a 0.
  67              		.loc 1 64 0 is_stmt 1
  68 001e 0020     		movs	r0, #0
  69 0020 FFF7FEFF 		bl	DHT_Write
  70              	.LVL5:
  65:main.c        ****     CyDelay(19);                      //Estará en 0, 19 milisegundos.
  71              		.loc 1 65 0
  72 0024 1320     		movs	r0, #19
  73 0026 FFF7FEFF 		bl	CyDelay
  74              	.LVL6:
  66:main.c        ****     DHT_Write(1u);                    //Se cambia el valor a 1.
  75              		.loc 1 66 0
  76 002a 0120     		movs	r0, #1
  77 002c FFF7FEFF 		bl	DHT_Write
  78              	.LVL7:
  53:main.c        ****     
  79              		.loc 1 53 0
  80 0030 0026     		movs	r6, #0
  67:main.c        ****     
  68:main.c        ****     while(DHT_Read()==1)              //Mientras que este en 1.
  81              		.loc 1 68 0
  82 0032 04E0     		b	.L4
  83              	.LVL8:
  84              	.L6:
  69:main.c        ****     { 
  70:main.c        ****        timeout++;                     //La variable "timeout" aumenta.
  85              		.loc 1 70 0
  86 0034 0136     		adds	r6, r6, #1
  87              	.LVL9:
  71:main.c        ****        if(timeout>500)                //Si está en 1 más de 500 milisegundos, anuncia un error.
  88              		.loc 1 71 0
  89 0036 FA23     		movs	r3, #250
  90 0038 5B00     		lsls	r3, r3, #1
  91 003a 9E42     		cmp	r6, r3
  92 003c 50DC     		bgt	.L5
  93              	.LVL10:
  94              	.L4:
  68:main.c        ****     { 
  95              		.loc 1 68 0
  96 003e FFF7FEFF 		bl	DHT_Read
ARM GAS  C:\Users\ANTONI~1\AppData\Local\Temp\ccqbSE6S.s 			page 4


  97              	.LVL11:
  98 0042 0128     		cmp	r0, #1
  99 0044 F6D0     		beq	.L6
 100 0046 04E0     		b	.L7
 101              	.L8:
  72:main.c        ****            goto r99;                  //Error de funcionamiento del sensor DHT22.
  73:main.c        ****     } 
  74:main.c        ****     
  75:main.c        ****     while(DHT_Read()==0)              //Si en el proceso anterior no da error, el propio sensor deb
  76:main.c        ****     {         
  77:main.c        ****        timeout++;                     //Una vez se cambie, la variable "timeout" aumenta de nuevo.
 102              		.loc 1 77 0
 103 0048 0136     		adds	r6, r6, #1
 104              	.LVL12:
  78:main.c        ****        if(timeout>500)                //Si está en 0 más de 500 milisegundos, anuncia un error.
 105              		.loc 1 78 0
 106 004a FA23     		movs	r3, #250
 107 004c 5B00     		lsls	r3, r3, #1
 108 004e 9E42     		cmp	r6, r3
 109 0050 46DC     		bgt	.L5
 110              	.L7:
  75:main.c        ****     {         
 111              		.loc 1 75 0
 112 0052 FFF7FEFF 		bl	DHT_Read
 113              	.LVL13:
 114 0056 0028     		cmp	r0, #0
 115 0058 F6D0     		beq	.L8
 116              	.L9:
  79:main.c        ****            goto r99;                  //Error de funcionamiento del sensor DHT22.
  80:main.c        ****     } 
  81:main.c        ****     
  82:main.c        ****     
  83:main.c        ****     calc=timeout;                     // Si en el proceso anterior no da error, se iguala el valor 
  84:main.c        ****     timeout=0;                        // Se actualiza el valor de "timeout" a 0.
  85:main.c        ****     
  86:main.c        ****     while(DHT_Read()==1);             // El sensor cambia otra vez el valor a 1 y comienza la lectu
 117              		.loc 1 86 0 discriminator 1
 118 005a FFF7FEFF 		bl	DHT_Read
 119              	.LVL14:
 120 005e 0128     		cmp	r0, #1
 121 0060 FBD0     		beq	.L9
 122 0062 0023     		movs	r3, #0
 123 0064 9846     		mov	r8, r3
 124 0066 0025     		movs	r5, #0
 125 0068 0727     		movs	r7, #7
 126 006a 21E0     		b	.L10
 127              	.LVL15:
 128              	.L11:
  87:main.c        ****     
  88:main.c        ****     for (i=0; i<40; i++) { 
  89:main.c        ****        timeout=0; 
  90:main.c        ****        while(DHT_Read()==0); 
 129              		.loc 1 90 0 discriminator 1
 130 006c FFF7FEFF 		bl	DHT_Read
 131              	.LVL16:
 132 0070 0028     		cmp	r0, #0
 133 0072 FBD0     		beq	.L11
ARM GAS  C:\Users\ANTONI~1\AppData\Local\Temp\ccqbSE6S.s 			page 5


 134 0074 0024     		movs	r4, #0
 135 0076 00E0     		b	.L12
 136              	.LVL17:
 137              	.L13:
  91:main.c        ****        while(DHT_Read()==1) 
  92:main.c        ****            timeout++; 
 138              		.loc 1 92 0
 139 0078 0134     		adds	r4, r4, #1
 140              	.LVL18:
 141              	.L12:
  91:main.c        ****        while(DHT_Read()==1) 
 142              		.loc 1 91 0
 143 007a FFF7FEFF 		bl	DHT_Read
 144              	.LVL19:
 145 007e 0128     		cmp	r0, #1
 146 0080 FAD0     		beq	.L13
  93:main.c        ****        
  94:main.c        ****        if ((timeout) > (calc/2)){ 
 147              		.loc 1 94 0
 148 0082 F30F     		lsrs	r3, r6, #31
 149 0084 9B19     		adds	r3, r3, r6
 150 0086 5B10     		asrs	r3, r3, #1
 151 0088 9C42     		cmp	r4, r3
 152 008a 06DD     		ble	.L14
  95:main.c        ****         bytes[idx] |= (1 << cnt); 
 153              		.loc 1 95 0
 154 008c 0123     		movs	r3, #1
 155 008e BB40     		lsls	r3, r3, r7
 156 0090 02AA     		add	r2, sp, #8
 157 0092 525D     		ldrb	r2, [r2, r5]
 158 0094 1343     		orrs	r3, r2
 159 0096 02AA     		add	r2, sp, #8
 160 0098 5355     		strb	r3, [r2, r5]
 161              	.L14:
  96:main.c        ****         }
  97:main.c        ****     
  98:main.c        ****        if (cnt == 0){
 162              		.loc 1 98 0
 163 009a 002F     		cmp	r7, #0
 164 009c 03D1     		bne	.L15
 165              	.LVL20:
  99:main.c        ****    		cnt = 7;    
 100:main.c        ****    		idx++;      
 166              		.loc 1 100 0
 167 009e 6B1C     		adds	r3, r5, #1
 168 00a0 DDB2     		uxtb	r5, r3
 169              	.LVL21:
  99:main.c        ****    		cnt = 7;    
 170              		.loc 1 99 0
 171 00a2 0737     		adds	r7, r7, #7
 172 00a4 01E0     		b	.L16
 173              	.LVL22:
 174              	.L15:
 101:main.c        ****    	    } 
 102:main.c        ****     
 103:main.c        ****    	    else cnt--; 
 175              		.loc 1 103 0
ARM GAS  C:\Users\ANTONI~1\AppData\Local\Temp\ccqbSE6S.s 			page 6


 176 00a6 013F     		subs	r7, r7, #1
 177              	.LVL23:
 178 00a8 FFB2     		uxtb	r7, r7
 179              	.LVL24:
 180              	.L16:
  88:main.c        ****        timeout=0; 
 181              		.loc 1 88 0 discriminator 2
 182 00aa 0123     		movs	r3, #1
 183 00ac 9C46     		mov	ip, r3
 184 00ae E044     		add	r8, r8, ip
 185              	.LVL25:
 186              	.L10:
  88:main.c        ****        timeout=0; 
 187              		.loc 1 88 0 is_stmt 0 discriminator 1
 188 00b0 4346     		mov	r3, r8
 189 00b2 272B     		cmp	r3, #39
 190 00b4 DADD     		ble	.L11
 104:main.c        ****     } 
 105:main.c        ****     
 106:main.c        ****    //Se asignan los bytes obtenidos a los bytes que pertenecen a humedad y a temperatura.
 107:main.c        ****     humedad1    = bytes[0]; 
 191              		.loc 1 107 0 is_stmt 1
 192 00b6 02AB     		add	r3, sp, #8
 193 00b8 1A78     		ldrb	r2, [r3]
 108:main.c        ****     humedad2    = bytes[1]; 
 194              		.loc 1 108 0
 195 00ba 5978     		ldrb	r1, [r3, #1]
 109:main.c        ****     temperatura1 = bytes[2]; 
 196              		.loc 1 109 0
 197 00bc 9B78     		ldrb	r3, [r3, #2]
 110:main.c        ****     temperatura2 = bytes[3]; 
 198              		.loc 1 110 0
 199 00be 02A8     		add	r0, sp, #8
 200 00c0 C078     		ldrb	r0, [r0, #3]
 111:main.c        ****     
 112:main.c        ****     humedad     = humedad1 * 256 + humedad2;          //Cálculo humedad final.
 201              		.loc 1 112 0
 202 00c2 1202     		lsls	r2, r2, #8
 203 00c4 8A18     		adds	r2, r1, r2
 204 00c6 0C49     		ldr	r1, .L18
 205 00c8 0A60     		str	r2, [r1]
 113:main.c        ****     temperatura  = temperatura1 * 256 + temperatura2; //Cálculo temperatura final.
 206              		.loc 1 113 0
 207 00ca 1B02     		lsls	r3, r3, #8
 208 00cc C318     		adds	r3, r0, r3
 209 00ce 4B60     		str	r3, [r1, #4]
 114:main.c        ****     
 115:main.c        ****     CyExitCriticalSection(IState);                    //Restaura el estado de interrupción.
 210              		.loc 1 115 0
 211 00d0 0198     		ldr	r0, [sp, #4]
 212 00d2 FFF7FEFF 		bl	CyExitCriticalSection
 213              	.LVL26:
 116:main.c        ****     
 117:main.c        ****     CyDelay(1); 
 214              		.loc 1 117 0
 215 00d6 0120     		movs	r0, #1
 216 00d8 FFF7FEFF 		bl	CyDelay
ARM GAS  C:\Users\ANTONI~1\AppData\Local\Temp\ccqbSE6S.s 			page 7


 217              	.LVL27:
 118:main.c        ****     return 0;
 218              		.loc 1 118 0
 219 00dc 0020     		movs	r0, #0
 220 00de 07E0     		b	.L17
 221              	.LVL28:
 222              	.L5:
 119:main.c        ****         
 120:main.c        ****     r99:                                              //Error en la lectura del sensor DHT22.
 121:main.c        ****       
 122:main.c        ****        humedad    = 99;                               //Al producirse un error la humedad toma el v
 223              		.loc 1 122 0
 224 00e0 054B     		ldr	r3, .L18
 225 00e2 6322     		movs	r2, #99
 226 00e4 1A60     		str	r2, [r3]
 123:main.c        ****        temperatura = 99;                              //Al producirse un error la temperatura toma 
 227              		.loc 1 123 0
 228 00e6 5A60     		str	r2, [r3, #4]
 124:main.c        ****        CyExitCriticalSection(IState);                 //Restaura el estado de interrupción.
 229              		.loc 1 124 0
 230 00e8 0198     		ldr	r0, [sp, #4]
 231 00ea FFF7FEFF 		bl	CyExitCriticalSection
 232              	.LVL29:
 125:main.c        ****        return 99; 
 233              		.loc 1 125 0
 234 00ee 6320     		movs	r0, #99
 235              	.LVL30:
 236              	.L17:
 126:main.c        **** }
 237              		.loc 1 126 0
 238 00f0 04B0     		add	sp, sp, #16
 239              		@ sp needed
 240 00f2 04BC     		pop	{r2}
 241 00f4 9046     		mov	r8, r2
 242 00f6 F0BD     		pop	{r4, r5, r6, r7, pc}
 243              	.L19:
 244              		.align	2
 245              	.L18:
 246 00f8 00000000 		.word	.LANCHOR0
 247              		.cfi_endproc
 248              	.LFE36:
 249              		.size	lectura_DHT22, .-lectura_DHT22
 250              		.global	__aeabi_idiv
 251              		.section	.text.main,"ax",%progbits
 252              		.align	2
 253              		.global	main
 254              		.code	16
 255              		.thumb_func
 256              		.type	main, %function
 257              	main:
 258              	.LFB37:
 127:main.c        **** 
 128:main.c        **** int main(void)
 129:main.c        **** {
 259              		.loc 1 129 0
 260              		.cfi_startproc
 261              		@ args = 0, pretend = 0, frame = 128
ARM GAS  C:\Users\ANTONI~1\AppData\Local\Temp\ccqbSE6S.s 			page 8


 262              		@ frame_needed = 0, uses_anonymous_args = 0
 263 0000 30B5     		push	{r4, r5, lr}
 264              		.cfi_def_cfa_offset 12
 265              		.cfi_offset 4, -12
 266              		.cfi_offset 5, -8
 267              		.cfi_offset 14, -4
 268 0002 A1B0     		sub	sp, sp, #132
 269              		.cfi_def_cfa_offset 144
 130:main.c        ****     //Definición de variables de proximidad
 131:main.c        ****     int16 proximidad, max_proximidad; 
 132:main.c        ****     int16 proximidadant=150;
 270              		.loc 1 132 0
 271 0004 9622     		movs	r2, #150
 272 0006 7E23     		movs	r3, #126
 273 0008 6B44     		add	r3, r3, sp
 274 000a 1A80     		strh	r2, [r3]
 133:main.c        **** 
 134:main.c        ****     CyGlobalIntEnable;                                //Habilitar interruptores globales. 
 275              		.loc 1 134 0
 276              		.syntax divided
 277              	@ 134 "main.c" 1
 278 000c 62B6     		CPSIE   i
 279              	@ 0 "" 2
 135:main.c        ****     
 136:main.c        ****     //Definición de variables tipo "char" usados para mostrar los datos leidos.
 137:main.c        ****     char outputstring[40];                            //Humedad
 138:main.c        ****     char outputstring1[40];                           //Temperatura
 139:main.c        ****     char outputstring2[40];                           //Proximidad
 140:main.c        ****     
 141:main.c        ****     I2C_Start();                                      //Inicializamos I2C
 280              		.loc 1 141 0
 281              		.thumb
 282              		.syntax unified
 283 000e FFF7FEFF 		bl	I2C_Start
 284              	.LVL31:
 142:main.c        ****     
 143:main.c        ****     LiquidCrystal_I2C_init(Addr,16,2,0);              //Se inicializa la LCD.
 285              		.loc 1 143 0
 286 0012 814B     		ldr	r3, .L34
 287 0014 187A     		ldrb	r0, [r3, #8]
 288 0016 0023     		movs	r3, #0
 289 0018 0222     		movs	r2, #2
 290 001a 1021     		movs	r1, #16
 291 001c FFF7FEFF 		bl	LiquidCrystal_I2C_init
 292              	.LVL32:
 144:main.c        ****    
 145:main.c        ****     begin();                                          //Se activa la LCD
 293              		.loc 1 145 0
 294 0020 FFF7FEFF 		bl	begin
 295              	.LVL33:
 146:main.c        ****     
 147:main.c        ****     CapSense_Start();                                 //Se inicia el "capsense" usado para medir pr
 296              		.loc 1 147 0
 297 0024 FFF7FEFF 		bl	CapSense_Start
 298              	.LVL34:
 148:main.c        ****         
 149:main.c        ****     CyGlobalIntEnable;                                //Habilitar interruptores globales. 
ARM GAS  C:\Users\ANTONI~1\AppData\Local\Temp\ccqbSE6S.s 			page 9


 299              		.loc 1 149 0
 300              		.syntax divided
 301              	@ 149 "main.c" 1
 302 0028 62B6     		CPSIE   i
 303              	@ 0 "" 2
 150:main.c        ****     
 151:main.c        ****     //Definición de funciones usadas para el sensor de proximidad.
 152:main.c        ****     CapSense_EnableWidget(CapSense_SENSOR_PROXIMITYSENSOR0_0__PROX);
 304              		.loc 1 152 0
 305              		.thumb
 306              		.syntax unified
 307 002a 0020     		movs	r0, #0
 308 002c FFF7FEFF 		bl	CapSense_EnableWidget
 309              	.LVL35:
 153:main.c        ****     CapSense_InitializeAllBaselines();
 310              		.loc 1 153 0
 311 0030 FFF7FEFF 		bl	CapSense_InitializeAllBaselines
 312              	.LVL36:
 154:main.c        ****     CapSense_UpdateEnabledBaselines();
 313              		.loc 1 154 0
 314 0034 FFF7FEFF 		bl	CapSense_UpdateEnabledBaselines
 315              	.LVL37:
 155:main.c        ****     CapSense_ScanEnabledWidgets();
 316              		.loc 1 155 0
 317 0038 FFF7FEFF 		bl	CapSense_ScanEnabledWidgets
 318              	.LVL38:
 319              	.L21:
 156:main.c        ****     while(CapSense_IsBusy()!=0);
 320              		.loc 1 156 0 discriminator 1
 321 003c FFF7FEFF 		bl	CapSense_IsBusy
 322              	.LVL39:
 323 0040 0028     		cmp	r0, #0
 324 0042 FBD1     		bne	.L21
 325              	.LVL40:
 157:main.c        ****     
 158:main.c        ****     max_proximidad = PROX_RANGE_INIT;                 // Se asigna a la variable "max_proximidad" l
 159:main.c        ****     
 160:main.c        ****     
 161:main.c        ****     CyBle_Start(BLECallBack);                         // Se realiza la llamada al BLE.
 326              		.loc 1 161 0
 327 0044 7548     		ldr	r0, .L34+4
 328 0046 FFF7FEFF 		bl	CyBle_Start
 329              	.LVL41:
 330              	.L22:
 162:main.c        ****     
 163:main.c        ****     for(;;)
 164:main.c        ****     { 
 165:main.c        ****         CyBle_ProcessEvents();
 331              		.loc 1 165 0
 332 004a FFF7FEFF 		bl	CyBle_ProcessEvents
 333              	.LVL42:
 166:main.c        ****         
 167:main.c        ****         CapSense_UpdateEnabledBaselines();
 334              		.loc 1 167 0
 335 004e FFF7FEFF 		bl	CapSense_UpdateEnabledBaselines
 336              	.LVL43:
 168:main.c        ****         CapSense_ScanEnabledWidgets();
ARM GAS  C:\Users\ANTONI~1\AppData\Local\Temp\ccqbSE6S.s 			page 10


 337              		.loc 1 168 0
 338 0052 FFF7FEFF 		bl	CapSense_ScanEnabledWidgets
 339              	.LVL44:
 340              	.L23:
 169:main.c        ****         
 170:main.c        ****         while(CapSense_IsBusy()!=0);                      // Mientras capsense esté activo.
 341              		.loc 1 170 0 discriminator 1
 342 0056 FFF7FEFF 		bl	CapSense_IsBusy
 343              	.LVL45:
 344 005a 0028     		cmp	r0, #0
 345 005c FBD1     		bne	.L23
 171:main.c        ****     
 172:main.c        ****         proximidad = CapSense_SensorSignal[0];            // Se guarda en la variable "proximidad" 
 346              		.loc 1 172 0
 347 005e 704B     		ldr	r3, .L34+8
 348 0060 0024     		movs	r4, #0
 349 0062 1C5F     		ldrsh	r4, [r3, r4]
 350              	.LVL46:
 173:main.c        ****         
 174:main.c        ****         if(proximidad<=0){                                // Si la proximidad leida es menor que 0.
 351              		.loc 1 174 0
 352 0064 002C     		cmp	r4, #0
 353 0066 00DC     		bgt	.L24
 175:main.c        ****             proximidad=0;                                 // La proximidad que muestra el sensor es
 354              		.loc 1 175 0
 355 0068 0024     		movs	r4, #0
 356              	.LVL47:
 357              	.L24:
 176:main.c        ****         }
 177:main.c        ****         if(proximidad>max_proximidad){                    // Si la proximidad leida es mayor que el
 358              		.loc 1 177 0
 359 006a 322C     		cmp	r4, #50
 360 006c 00DD     		ble	.L25
 178:main.c        ****             proximidad=max_proximidad;                    // La proximidad que muestra el sensor es
 361              		.loc 1 178 0
 362 006e 3224     		movs	r4, #50
 363              	.LVL48:
 364              	.L25:
 179:main.c        ****         }
 180:main.c        ****                
 181:main.c        ****          
 182:main.c        ****         lectura_DHT22();                                  // Se llama a la función de lectura del 
 365              		.loc 1 182 0
 366 0070 FFF7FEFF 		bl	lectura_DHT22
 367              	.LVL49:
 183:main.c        ****         
 184:main.c        ****         if(deviceConnected & startNotificationHumidity){  // Si el dispositivo se conecta y se noti
 368              		.loc 1 184 0
 369 0074 6B4B     		ldr	r3, .L34+12
 370 0076 1B78     		ldrb	r3, [r3]
 371 0078 6B4A     		ldr	r2, .L34+16
 372 007a 1278     		ldrb	r2, [r2]
 373 007c 1A42     		tst	r2, r3
 374 007e 43D0     		beq	.L26
 185:main.c        ****             
 186:main.c        ****             humedad = humedad / 10;                       // Se calcula la humedad final que se man
 375              		.loc 1 186 0
ARM GAS  C:\Users\ANTONI~1\AppData\Local\Temp\ccqbSE6S.s 			page 11


 376 0080 654C     		ldr	r4, .L34
 377              	.LVL50:
 378 0082 0A21     		movs	r1, #10
 379 0084 2068     		ldr	r0, [r4]
 380 0086 FFF7FEFF 		bl	__aeabi_idiv
 381              	.LVL51:
 382 008a 2060     		str	r0, [r4]
 187:main.c        ****             
 188:main.c        ****             if (humedad!=humedadant){                     // Si la humedad leida no es igual al dat
 383              		.loc 1 188 0
 384 008c E368     		ldr	r3, [r4, #12]
 385 008e 9842     		cmp	r0, r3
 386 0090 31D0     		beq	.L27
 189:main.c        ****                 clear();                                  // Se limpia lo que haya en la LCD.
 387              		.loc 1 189 0
 388 0092 FFF7FEFF 		bl	clear
 389              	.LVL52:
 190:main.c        ****                 humedadant=humedad;                       // Se asigna el valor que se va a enviar 
 390              		.loc 1 190 0
 391 0096 604C     		ldr	r4, .L34
 392 0098 2368     		ldr	r3, [r4]
 393 009a E360     		str	r3, [r4, #12]
 191:main.c        ****                 setCursor(0,0);                               // Primera linea LCD.
 394              		.loc 1 191 0
 395 009c 0021     		movs	r1, #0
 396 009e 0020     		movs	r0, #0
 397 00a0 FFF7FEFF 		bl	setCursor
 398              	.LVL53:
 192:main.c        ****                 LCD_print("  HUMEDAD (%)");                    // Se imprime en la LCD.
 399              		.loc 1 192 0
 400 00a4 6148     		ldr	r0, .L34+20
 401 00a6 FFF7FEFF 		bl	LCD_print
 402              	.LVL54:
 193:main.c        ****                 sprintf(outputstring, "      %.2i ", humedadant);  // Se muestra en la LCD el valor
 403              		.loc 1 193 0
 404 00aa E268     		ldr	r2, [r4, #12]
 405 00ac 6049     		ldr	r1, .L34+24
 406 00ae 15A8     		add	r0, sp, #84
 407 00b0 FFF7FEFF 		bl	sprintf
 408              	.LVL55:
 194:main.c        ****                 setCursor(0,1);                           //Primera linea del LCD
 409              		.loc 1 194 0
 410 00b4 0121     		movs	r1, #1
 411 00b6 0020     		movs	r0, #0
 412 00b8 FFF7FEFF 		bl	setCursor
 413              	.LVL56:
 195:main.c        ****                 LCD_print(outputstring);  
 414              		.loc 1 195 0
 415 00bc 15A8     		add	r0, sp, #84
 416 00be FFF7FEFF 		bl	LCD_print
 417              	.LVL57:
 196:main.c        ****             
 197:main.c        ****                 //Transmisión de datos de humedad por BLE
 198:main.c        ****                 notificationHandle.attrHandle = CYBLE_DHT22_HUMIDITY_CHAR_HANDLE;
 418              		.loc 1 198 0
 419 00c2 5C4D     		ldr	r5, .L34+28
 420 00c4 1223     		movs	r3, #18
ARM GAS  C:\Users\ANTONI~1\AppData\Local\Temp\ccqbSE6S.s 			page 12


 421 00c6 2B81     		strh	r3, [r5, #8]
 199:main.c        ****                 notificationHandle.value.val = (uint8*) &humedadant;
 422              		.loc 1 199 0
 423 00c8 0C34     		adds	r4, r4, #12
 424 00ca 2C60     		str	r4, [r5]
 200:main.c        ****                 notificationHandle.value.len = 2;
 425              		.loc 1 200 0
 426 00cc 103B     		subs	r3, r3, #16
 427 00ce AB80     		strh	r3, [r5, #4]
 201:main.c        ****             
 202:main.c        ****                 CyBle_GattsNotification(connectionHandle, &notificationHandle);
 428              		.loc 1 202 0
 429 00d0 594C     		ldr	r4, .L34+32
 430 00d2 2378     		ldrb	r3, [r4]
 431 00d4 6078     		ldrb	r0, [r4, #1]
 432 00d6 0002     		lsls	r0, r0, #8
 433 00d8 1843     		orrs	r0, r3
 434 00da 2900     		movs	r1, r5
 435 00dc FFF7FEFF 		bl	CyBle_GattsNotification
 436              	.LVL58:
 203:main.c        ****                 CyDelay(1000);
 437              		.loc 1 203 0
 438 00e0 FA20     		movs	r0, #250
 439 00e2 8000     		lsls	r0, r0, #2
 440 00e4 FFF7FEFF 		bl	CyDelay
 441              	.LVL59:
 204:main.c        ****             
 205:main.c        ****                 CyBle_GattsWriteAttributeValue(&notificationHandle,0,&connectionHandle, 0);
 442              		.loc 1 205 0
 443 00e8 0023     		movs	r3, #0
 444 00ea 2200     		movs	r2, r4
 445 00ec 0021     		movs	r1, #0
 446 00ee 2800     		movs	r0, r5
 447 00f0 FFF7FEFF 		bl	CyBle_GattsWriteAttributeValue
 448              	.LVL60:
 449 00f4 A9E7     		b	.L22
 450              	.L27:
 206:main.c        ****             }
 207:main.c        ****             
 208:main.c        ****             else if(humedad==humedadant){                   // Si el dato leido es igual al dato al
 451              		.loc 1 208 0
 452 00f6 9842     		cmp	r0, r3
 453 00f8 A7D1     		bne	.L22
 209:main.c        ****                 lectura_DHT22();                            // Se vuelve a leer el dato sin mandar 
 454              		.loc 1 209 0
 455 00fa FFF7FEFF 		bl	lectura_DHT22
 456              	.LVL61:
 210:main.c        ****                 CyDelay(1000);                              // Retardo de 1 segundo.
 457              		.loc 1 210 0
 458 00fe FA20     		movs	r0, #250
 459 0100 8000     		lsls	r0, r0, #2
 460 0102 FFF7FEFF 		bl	CyDelay
 461              	.LVL62:
 462 0106 A0E7     		b	.L22
 463              	.LVL63:
 464              	.L26:
 211:main.c        ****             }
ARM GAS  C:\Users\ANTONI~1\AppData\Local\Temp\ccqbSE6S.s 			page 13


 212:main.c        ****         }
 213:main.c        ****         
 214:main.c        ****         else if(deviceConnected & startNotificationTemperature){ // Si el dispositivo se conecta y 
 465              		.loc 1 214 0
 466 0108 4C4A     		ldr	r2, .L34+36
 467 010a 1278     		ldrb	r2, [r2]
 468 010c 1A42     		tst	r2, r3
 469 010e 44D0     		beq	.L29
 215:main.c        ****             
 216:main.c        ****             temperatura = temperatura / 10;                 // Se calcula la temperatura final que 
 470              		.loc 1 216 0
 471 0110 414C     		ldr	r4, .L34
 472              	.LVL64:
 473 0112 0A21     		movs	r1, #10
 474 0114 6068     		ldr	r0, [r4, #4]
 475 0116 FFF7FEFF 		bl	__aeabi_idiv
 476              	.LVL65:
 477 011a 6060     		str	r0, [r4, #4]
 217:main.c        ****             
 218:main.c        ****             if (temperatura!=temperaturaant){               // Si la temperatura leida no es igual 
 478              		.loc 1 218 0
 479 011c 2369     		ldr	r3, [r4, #16]
 480 011e 9842     		cmp	r0, r3
 481 0120 31D0     		beq	.L30
 219:main.c        ****                 clear();                                    // Se limpia lo que haya en la LCD.
 482              		.loc 1 219 0
 483 0122 FFF7FEFF 		bl	clear
 484              	.LVL66:
 220:main.c        ****                 temperaturaant=temperatura;                 // Se asigna el valor que se va a envia
 485              		.loc 1 220 0
 486 0126 3C4C     		ldr	r4, .L34
 487 0128 6368     		ldr	r3, [r4, #4]
 488 012a 2361     		str	r3, [r4, #16]
 221:main.c        ****                 setCursor(0,0);                               // Primera linea LCD.
 489              		.loc 1 221 0
 490 012c 0021     		movs	r1, #0
 491 012e 0020     		movs	r0, #0
 492 0130 FFF7FEFF 		bl	setCursor
 493              	.LVL67:
 222:main.c        ****                 LCD_print("TEMPERATURA (oC)");                    // Se imprime en la LCD.
 494              		.loc 1 222 0
 495 0134 4248     		ldr	r0, .L34+40
 496 0136 FFF7FEFF 		bl	LCD_print
 497              	.LVL68:
 223:main.c        ****                 sprintf(outputstring1, "      %.2i", temperaturaant);  // Se muestra en la LCD el v
 498              		.loc 1 223 0
 499 013a 2269     		ldr	r2, [r4, #16]
 500 013c 4149     		ldr	r1, .L34+44
 501 013e 0BA8     		add	r0, sp, #44
 502 0140 FFF7FEFF 		bl	sprintf
 503              	.LVL69:
 224:main.c        ****                 setCursor(0,1);                             //Primera linea LCD. 
 504              		.loc 1 224 0
 505 0144 0121     		movs	r1, #1
 506 0146 0020     		movs	r0, #0
 507 0148 FFF7FEFF 		bl	setCursor
 508              	.LVL70:
ARM GAS  C:\Users\ANTONI~1\AppData\Local\Temp\ccqbSE6S.s 			page 14


 225:main.c        ****                 LCD_print(outputstring1);
 509              		.loc 1 225 0
 510 014c 0BA8     		add	r0, sp, #44
 511 014e FFF7FEFF 		bl	LCD_print
 512              	.LVL71:
 226:main.c        ****             
 227:main.c        ****                 //Transmisión de datos de temperatura por BLE
 228:main.c        ****                 notificationHandle1.attrHandle = CYBLE_DHT22_TEMPERATURE_CHAR_HANDLE;
 513              		.loc 1 228 0
 514 0152 3D4D     		ldr	r5, .L34+48
 515 0154 1623     		movs	r3, #22
 516 0156 2B81     		strh	r3, [r5, #8]
 229:main.c        ****                 notificationHandle1.value.val = (uint8*) &temperaturaant;
 517              		.loc 1 229 0
 518 0158 1034     		adds	r4, r4, #16
 519 015a 2C60     		str	r4, [r5]
 230:main.c        ****                 notificationHandle1.value.len = 2;
 520              		.loc 1 230 0
 521 015c 143B     		subs	r3, r3, #20
 522 015e AB80     		strh	r3, [r5, #4]
 231:main.c        ****             
 232:main.c        ****                 CyBle_GattsWriteAttributeValue(&notificationHandle1,0,&connectionHandle, 0);
 523              		.loc 1 232 0
 524 0160 354C     		ldr	r4, .L34+32
 525 0162 0023     		movs	r3, #0
 526 0164 2200     		movs	r2, r4
 527 0166 0021     		movs	r1, #0
 528 0168 2800     		movs	r0, r5
 529 016a FFF7FEFF 		bl	CyBle_GattsWriteAttributeValue
 530              	.LVL72:
 233:main.c        ****             
 234:main.c        ****                 CyBle_GattsNotification(connectionHandle, &notificationHandle1);
 531              		.loc 1 234 0
 532 016e 2378     		ldrb	r3, [r4]
 533 0170 6078     		ldrb	r0, [r4, #1]
 534 0172 0002     		lsls	r0, r0, #8
 535 0174 1843     		orrs	r0, r3
 536 0176 2900     		movs	r1, r5
 537 0178 FFF7FEFF 		bl	CyBle_GattsNotification
 538              	.LVL73:
 235:main.c        ****                 CyDelay(1000);
 539              		.loc 1 235 0
 540 017c FA20     		movs	r0, #250
 541 017e 8000     		lsls	r0, r0, #2
 542 0180 FFF7FEFF 		bl	CyDelay
 543              	.LVL74:
 544 0184 61E7     		b	.L22
 545              	.L30:
 236:main.c        ****             }
 237:main.c        ****             else if (temperatura==temperaturaant){          // Si el dato leido es igual al dato al
 546              		.loc 1 237 0
 547 0186 9842     		cmp	r0, r3
 548 0188 00D0     		beq	.LCB501
 549 018a 5EE7     		b	.L22	@long jump
 550              	.LCB501:
 238:main.c        ****                 lectura_DHT22();                            // Se vuelve a leer el dato sin mandar 
 551              		.loc 1 238 0
ARM GAS  C:\Users\ANTONI~1\AppData\Local\Temp\ccqbSE6S.s 			page 15


 552 018c FFF7FEFF 		bl	lectura_DHT22
 553              	.LVL75:
 239:main.c        ****                 CyDelay(1000);                              // Retardo de 1 segundo.
 554              		.loc 1 239 0
 555 0190 FA20     		movs	r0, #250
 556 0192 8000     		lsls	r0, r0, #2
 557 0194 FFF7FEFF 		bl	CyDelay
 558              	.LVL76:
 559 0198 57E7     		b	.L22
 560              	.LVL77:
 561              	.L29:
 240:main.c        ****             }
 241:main.c        ****         }
 242:main.c        ****         
 243:main.c        ****         else if(deviceConnected & startNotificationProximity){ //Solo si cumple esto el sensor capt
 562              		.loc 1 243 0
 563 019a 2C4A     		ldr	r2, .L34+52
 564 019c 1278     		ldrb	r2, [r2]
 565 019e 1A42     		tst	r2, r3
 566 01a0 00D1     		bne	.LCB518
 567 01a2 52E7     		b	.L22	@long jump
 568              	.LCB518:
 244:main.c        ****             
 245:main.c        ****             if (proximidad!=proximidadant){                 // Si el dispositivo se conecta y se no
 569              		.loc 1 245 0
 570 01a4 7E23     		movs	r3, #126
 571 01a6 6B44     		add	r3, r3, sp
 572 01a8 0022     		movs	r2, #0
 573 01aa 9B5E     		ldrsh	r3, [r3, r2]
 574 01ac 9C42     		cmp	r4, r3
 575 01ae 2DD0     		beq	.L31
 246:main.c        ****             
 247:main.c        ****                 proximidadant=proximidad;                   // Si la proximidad leida no es igual a
 576              		.loc 1 247 0
 577 01b0 7E25     		movs	r5, #126
 578 01b2 6D44     		add	r5, r5, sp
 579 01b4 2C80     		strh	r4, [r5]
 248:main.c        ****                 clear();                                    // Se limpia lo que haya en la LCD.
 580              		.loc 1 248 0
 581 01b6 FFF7FEFF 		bl	clear
 582              	.LVL78:
 249:main.c        ****                 setCursor(0,0);                               // Primera linea LCD.
 583              		.loc 1 249 0
 584 01ba 0021     		movs	r1, #0
 585 01bc 0020     		movs	r0, #0
 586 01be FFF7FEFF 		bl	setCursor
 587              	.LVL79:
 250:main.c        ****                 LCD_print("   PROXIMIDAD ");                    // Se imprime en la LCD.
 588              		.loc 1 250 0
 589 01c2 2348     		ldr	r0, .L34+56
 590 01c4 FFF7FEFF 		bl	LCD_print
 591              	.LVL80:
 251:main.c        ****                 sprintf(outputstring2, "       %d ", proximidadant); // Se muestra en la LCD el val
 592              		.loc 1 251 0
 593 01c8 0023     		movs	r3, #0
 594 01ca EA5E     		ldrsh	r2, [r5, r3]
 595 01cc 2149     		ldr	r1, .L34+60
ARM GAS  C:\Users\ANTONI~1\AppData\Local\Temp\ccqbSE6S.s 			page 16


 596 01ce 01A8     		add	r0, sp, #4
 597 01d0 FFF7FEFF 		bl	sprintf
 598              	.LVL81:
 252:main.c        ****                 setCursor(0,1);                             //Primera linea LCD.
 599              		.loc 1 252 0
 600 01d4 0121     		movs	r1, #1
 601 01d6 0020     		movs	r0, #0
 602 01d8 FFF7FEFF 		bl	setCursor
 603              	.LVL82:
 253:main.c        ****                 LCD_print(outputstring2);
 604              		.loc 1 253 0
 605 01dc 01A8     		add	r0, sp, #4
 606 01de FFF7FEFF 		bl	LCD_print
 607              	.LVL83:
 254:main.c        ****             
 255:main.c        ****                 //Transmisión de datos de proximidad por BLE.
 256:main.c        ****                 notificationHandle2.attrHandle = CYBLE_PROX_SENSOR_PROXIMITY_CHAR_HANDLE;
 608              		.loc 1 256 0
 609 01e2 1D4C     		ldr	r4, .L34+64
 610              	.LVL84:
 611 01e4 1B23     		movs	r3, #27
 612 01e6 2381     		strh	r3, [r4, #8]
 257:main.c        ****                 notificationHandle2.value.val = (uint8*) &proximidadant;
 613              		.loc 1 257 0
 614 01e8 2560     		str	r5, [r4]
 258:main.c        ****                 notificationHandle2.value.len = 2;
 615              		.loc 1 258 0
 616 01ea 193B     		subs	r3, r3, #25
 617 01ec A380     		strh	r3, [r4, #4]
 259:main.c        ****             
 260:main.c        ****                 CyBle_GattsWriteAttributeValue(&notificationHandle2,0,&connectionHandle, 0);
 618              		.loc 1 260 0
 619 01ee 124D     		ldr	r5, .L34+32
 620 01f0 0023     		movs	r3, #0
 621 01f2 2A00     		movs	r2, r5
 622 01f4 0021     		movs	r1, #0
 623 01f6 2000     		movs	r0, r4
 624 01f8 FFF7FEFF 		bl	CyBle_GattsWriteAttributeValue
 625              	.LVL85:
 261:main.c        ****             
 262:main.c        ****                 CyBle_GattsNotification(connectionHandle, &notificationHandle2);
 626              		.loc 1 262 0
 627 01fc 2B78     		ldrb	r3, [r5]
 628 01fe 6878     		ldrb	r0, [r5, #1]
 629 0200 0002     		lsls	r0, r0, #8
 630 0202 1843     		orrs	r0, r3
 631 0204 2100     		movs	r1, r4
 632 0206 FFF7FEFF 		bl	CyBle_GattsNotification
 633              	.LVL86:
 634 020a 1EE7     		b	.L22
 635              	.LVL87:
 636              	.L31:
 263:main.c        ****             }
 264:main.c        ****             else if (proximidad==proximidadant){            // Si el dato leido es igual al dato al
 637              		.loc 1 264 0
 638 020c 9C42     		cmp	r4, r3
 639 020e 00D0     		beq	.LCB578
ARM GAS  C:\Users\ANTONI~1\AppData\Local\Temp\ccqbSE6S.s 			page 17


 640 0210 1BE7     		b	.L22	@long jump
 641              	.LCB578:
 265:main.c        ****                 lectura_DHT22();                            // Se vuelve a leer el dato sin mandar 
 642              		.loc 1 265 0
 643 0212 FFF7FEFF 		bl	lectura_DHT22
 644              	.LVL88:
 645 0216 18E7     		b	.L22
 646              	.L35:
 647              		.align	2
 648              	.L34:
 649 0218 00000000 		.word	.LANCHOR0
 650 021c 00000000 		.word	BLECallBack
 651 0220 00000000 		.word	CapSense_sensorSignal
 652 0224 00000000 		.word	deviceConnected
 653 0228 00000000 		.word	startNotificationHumidity
 654 022c 00000000 		.word	.LC6
 655 0230 10000000 		.word	.LC8
 656 0234 00000000 		.word	notificationHandle
 657 0238 00000000 		.word	connectionHandle
 658 023c 00000000 		.word	startNotificationTemperature
 659 0240 1C000000 		.word	.LC13
 660 0244 30000000 		.word	.LC15
 661 0248 00000000 		.word	notificationHandle1
 662 024c 00000000 		.word	startNotificationProximity
 663 0250 3C000000 		.word	.LC19
 664 0254 4C000000 		.word	.LC21
 665 0258 00000000 		.word	notificationHandle2
 666              		.cfi_endproc
 667              	.LFE37:
 668              		.size	main, .-main
 669              		.comm	connectionHandle,2,4
 670              		.comm	notificationHandle2,12,4
 671              		.comm	notificationHandle1,12,4
 672              		.comm	notificationHandle,12,4
 673              		.global	Addr
 674              		.comm	startNotificationProximity,1,1
 675              		.comm	startNotificationTemperature,1,1
 676              		.comm	startNotificationHumidity,1,1
 677              		.data
 678              		.align	2
 679              		.set	.LANCHOR0,. + 0
 680              		.type	humedad, %object
 681              		.size	humedad, 4
 682              	humedad:
 683 0000 63000000 		.word	99
 684              		.type	temperatura, %object
 685              		.size	temperatura, 4
 686              	temperatura:
 687 0004 63000000 		.word	99
 688              		.type	Addr, %object
 689              		.size	Addr, 4
 690              	Addr:
 691 0008 27000000 		.word	39
 692              		.type	humedadant, %object
 693              		.size	humedadant, 4
 694              	humedadant:
 695 000c 96000000 		.word	150
ARM GAS  C:\Users\ANTONI~1\AppData\Local\Temp\ccqbSE6S.s 			page 18


 696              		.type	temperaturaant, %object
 697              		.size	temperaturaant, 4
 698              	temperaturaant:
 699 0010 C8000000 		.word	200
 700              		.section	.rodata.str1.4,"aMS",%progbits,1
 701              		.align	2
 702              	.LC6:
 703 0000 20204855 		.ascii	"  HUMEDAD (%)\000"
 703      4D454441 
 703      44202825 
 703      2900
 704 000e 0000     		.space	2
 705              	.LC8:
 706 0010 20202020 		.ascii	"      %.2i \000"
 706      2020252E 
 706      32692000 
 707              	.LC13:
 708 001c 54454D50 		.ascii	"TEMPERATURA (oC)\000"
 708      45524154 
 708      55524120 
 708      286F4329 
 708      00
 709 002d 000000   		.space	3
 710              	.LC15:
 711 0030 20202020 		.ascii	"      %.2i\000"
 711      2020252E 
 711      326900
 712 003b 00       		.space	1
 713              	.LC19:
 714 003c 20202050 		.ascii	"   PROXIMIDAD \000"
 714      524F5849 
 714      4D494441 
 714      442000
 715 004b 00       		.space	1
 716              	.LC21:
 717 004c 20202020 		.ascii	"       %d \000"
 717      20202025 
 717      642000
 718              		.text
 719              	.Letext0:
 720              		.file 2 "c:\\program files (x86)\\cypress\\psoc creator\\4.2\\psoc creator\\import\\gnu\\arm\\5.4.
 721              		.file 3 "c:\\program files (x86)\\cypress\\psoc creator\\4.2\\psoc creator\\import\\gnu\\arm\\5.4.
 722              		.file 4 "Generated_Source\\PSoC4/cytypes.h"
 723              		.file 5 "Generated_Source\\PSoC4/BLE_StackGatt.h"
 724              		.file 6 "Generated_Source\\PSoC4/BLE_StackGattServer.h"
 725              		.file 7 "BLE_APP.h"
 726              		.file 8 "Generated_Source\\PSoC4/CyLib.h"
 727              		.file 9 "Generated_Source\\PSoC4/DHT.h"
 728              		.file 10 "Generated_Source\\PSoC4/I2C.h"
 729              		.file 11 "LiquidCrystal_I2C.h"
 730              		.file 12 "Generated_Source\\PSoC4/CapSense.h"
 731              		.file 13 "Generated_Source\\PSoC4/CapSense_CSHL.h"
 732              		.file 14 "Generated_Source\\PSoC4/BLE.h"
 733              		.file 15 "Generated_Source\\PSoC4/BLE_Stack.h"
 734              		.file 16 "c:\\program files (x86)\\cypress\\psoc creator\\4.2\\psoc creator\\import\\gnu\\arm\\5.4
 735              		.file 17 "Generated_Source\\PSoC4/BLE_StackGattDb.h"